	.text
	.syntax unified
	.eabi_attribute	67, "2.09"	@ Tag_conformance
	.cpu	cortex-a8
	.eabi_attribute	6, 10	@ Tag_CPU_arch
	.eabi_attribute	7, 65	@ Tag_CPU_arch_profile
	.eabi_attribute	8, 1	@ Tag_ARM_ISA_use
	.eabi_attribute	9, 2	@ Tag_THUMB_ISA_use
	.fpu	neon
	.eabi_attribute	17, 1	@ Tag_ABI_PCS_GOT_use
	.eabi_attribute	20, 2	@ Tag_ABI_FP_denormal
	.eabi_attribute	23, 1	@ Tag_ABI_FP_number_model
	.eabi_attribute	34, 1	@ Tag_CPU_unaligned_access
	.eabi_attribute	24, 1	@ Tag_ABI_align_needed
	.eabi_attribute	25, 1	@ Tag_ABI_align_preserved
	.eabi_attribute	28, 1	@ Tag_ABI_VFP_args
	.eabi_attribute	38, 1	@ Tag_ABI_FP_16bit_format
	.eabi_attribute	18, 4	@ Tag_ABI_PCS_wchar_t
	.eabi_attribute	26, 2	@ Tag_ABI_enum_size
	.eabi_attribute	14, 0	@ Tag_ABI_PCS_R9_use
	.eabi_attribute	68, 1	@ Tag_Virtualization_use
	.file	"/root/Bela/projects/assignment2/build/LowPassFilter.bc"
	.file	1 "/usr/bin/../lib/gcc/arm-linux-gnueabihf/6.3.0/../../../../include/arm-linux-gnueabihf/c++/6.3.0/bits" "c++config.h"
	.file	2 "/usr/bin/../lib/gcc/arm-linux-gnueabihf/6.3.0/../../../../include/arm-linux-gnueabihf/c++/6.3.0/bits" "atomic_word.h"
	.file	3 "/usr/bin/../lib/gcc/arm-linux-gnueabihf/6.3.0/../../../../include/c++/6.3.0/bits" "ios_base.h"
	.file	4 "/usr/bin/../lib/gcc/arm-linux-gnueabihf/6.3.0/../../../../include/c++/6.3.0" "iostream"
	.file	5 "/usr/bin/../lib/gcc/arm-linux-gnueabihf/6.3.0/../../../../include/c++/6.3.0/bits" "postypes.h"
	.file	6 "/usr/include/arm-linux-gnueabihf/bits" "math-finite.h"
	.file	7 "/usr/include/arm-linux-gnueabihf/bits" "mathcalls.h"
	.file	8 "/usr/include/arm-linux-gnueabihf/bits" "mathdef.h"
	.file	9 "/usr/include" "wchar.h"
	.file	10 "/usr/lib/llvm-3.9/bin/../lib/clang/3.9.1/include" "stddef.h"
	.file	11 "/usr/include" "libio.h"
	.file	12 "/usr/include/arm-linux-gnueabihf/bits" "types.h"
	.file	13 "/usr/include" "stdio.h"
	.file	14 "/usr/lib/llvm-3.9/bin/../lib/clang/3.9.1/include" "stdarg.h"
	.file	15 "/usr/bin/../lib/gcc/arm-linux-gnueabihf/6.3.0/../../../../include/c++/6.3.0/bits" "exception_ptr.h"
	.file	16 "/usr/bin/../lib/gcc/arm-linux-gnueabihf/6.3.0/../../../../include/c++/6.3.0/debug" "debug.h"
	.file	17 "/usr/include" "stdint.h"
	.file	18 "/usr/include" "locale.h"
	.file	19 "/usr/include" "ctype.h"
	.file	20 "/usr/include" "stdlib.h"
	.file	21 "/usr/include/arm-linux-gnueabihf/bits" "stdlib-float.h"
	.file	22 "/usr/include/arm-linux-gnueabihf/bits" "stdlib-bsearch.h"
	.file	23 "/usr/bin/../lib/gcc/arm-linux-gnueabihf/6.3.0/../../../../include/c++/6.3.0" "cstdlib"
	.file	24 "/usr/include" "_G_config.h"
	.file	25 "/usr/include/arm-linux-gnueabihf/bits" "stdio.h"
	.file	26 "/usr/include" "wctype.h"
	.globl	_ZN13LowPassFilterC2Ev
	.p2align	2
	.type	_ZN13LowPassFilterC2Ev,%function
_ZN13LowPassFilterC2Ev:                 @ @_ZN13LowPassFilterC2Ev
.Lfunc_begin0:
	.file	27 "/root/Bela/projects/assignment2" "LowPassFilter.cpp"
	.loc	27 12 0                 @ /root/Bela/projects/assignment2/LowPassFilter.cpp:12:0
	.fnstart
	.cfi_startproc
@ BB#0:
	@DEBUG_VALUE: LowPassFilter:this <- %R0
	mov	r1, #0
.Ltmp0:
	.loc	27 11 2 prologue_end    @ /root/Bela/projects/assignment2/LowPassFilter.cpp:11:2
	str	r1, [r0]
	.loc	27 12 2                 @ /root/Bela/projects/assignment2/LowPassFilter.cpp:12:2
	str	r1, [r0, #4]
	.loc	27 12 10 is_stmt 0      @ /root/Bela/projects/assignment2/LowPassFilter.cpp:12:10
	bx	lr
.Ltmp1:
.Lfunc_end0:
	.size	_ZN13LowPassFilterC2Ev, .Lfunc_end0-_ZN13LowPassFilterC2Ev
	.cfi_endproc
	.file	28 "/root/Bela/projects/assignment2" "LowPassFilter.hpp"
	.fnend

	.globl	_ZN13LowPassFilterC2Eff
	.p2align	3
	.type	_ZN13LowPassFilterC2Eff,%function
_ZN13LowPassFilterC2Eff:                @ @_ZN13LowPassFilterC2Eff
.Lfunc_begin1:
	.loc	27 17 0 is_stmt 1       @ /root/Bela/projects/assignment2/LowPassFilter.cpp:17:0
	.fnstart
	.cfi_startproc
@ BB#0:
	.save	{r4, r5, r11, lr}
	push	{r4, r5, r11, lr}
.Ltmp2:
	.cfi_def_cfa_offset 16
.Ltmp3:
	.cfi_offset lr, -4
.Ltmp4:
	.cfi_offset r11, -8
.Ltmp5:
	.cfi_offset r5, -12
.Ltmp6:
	.cfi_offset r4, -16
	.setfp	r11, sp, #8
	add	r11, sp, #8
.Ltmp7:
	.cfi_def_cfa r11, 8
	.vsave	{d8, d9}
	vpush	{d8, d9}
.Ltmp8:
	.cfi_offset d9, -24
.Ltmp9:
	.cfi_offset d8, -32
	@DEBUG_VALUE: LowPassFilter:this <- %R0
	@DEBUG_VALUE: LowPassFilter:iCutOffFrequency <- %S0
	@DEBUG_VALUE: LowPassFilter:iDeltaTime <- %S1
	vmov.f32	s16, s0
.Ltmp10:
	@DEBUG_VALUE: LowPassFilter:iCutOffFrequency <- %S16
	.loc	27 16 29 prologue_end   @ /root/Bela/projects/assignment2/LowPassFilter.cpp:16:29
	vldr	d17, .LCPI1_0
	vmov.f32	s18, s1
.Ltmp11:
	@DEBUG_VALUE: LowPassFilter:iDeltaTime <- %S18
	mov	r4, r0
.Ltmp12:
	@DEBUG_VALUE: LowPassFilter:this <- %R4
	mov	r5, #0
	.loc	27 15 2                 @ /root/Bela/projects/assignment2/LowPassFilter.cpp:15:2
	str	r5, [r4]
	.loc	27 16 56                @ /root/Bela/projects/assignment2/LowPassFilter.cpp:16:56
	vcvt.f64.f32	d16, s16
	.loc	27 16 29 is_stmt 0      @ /root/Bela/projects/assignment2/LowPassFilter.cpp:16:29
	vmul.f64	d16, d16, d17
	.loc	27 16 25                @ /root/Bela/projects/assignment2/LowPassFilter.cpp:16:25
	vmov.f32	d17, #-2.000000e+00
	vmul.f32	d0, d9, d17
	.loc	27 16 13                @ /root/Bela/projects/assignment2/LowPassFilter.cpp:16:13
	vcvt.f64.f32	d17, s0
	.loc	27 16 54                @ /root/Bela/projects/assignment2/LowPassFilter.cpp:16:54
	vmul.f64	d0, d16, d17
	.loc	27 16 9                 @ /root/Bela/projects/assignment2/LowPassFilter.cpp:16:9
	bl	__exp_finite
	.loc	27 16 8                 @ /root/Bela/projects/assignment2/LowPassFilter.cpp:16:8
	vmov.f64	d16, #1.000000e+00
	vsub.f64	d16, d16, d0
	.loc	27 16 7                 @ /root/Bela/projects/assignment2/LowPassFilter.cpp:16:7
	vcvt.f32.f64	s0, d16
.Ltmp13:
	.loc	27 19 6 is_stmt 1       @ /root/Bela/projects/assignment2/LowPassFilter.cpp:19:6
	vcmpe.f32	s18, #0
.Ltmp14:
	.loc	27 16 2                 @ /root/Bela/projects/assignment2/LowPassFilter.cpp:16:2
	vstr	s0, [r4, #4]
.Ltmp15:
	.loc	27 19 6                 @ /root/Bela/projects/assignment2/LowPassFilter.cpp:19:6
	vmrs	APSR_nzcv, fpscr
	bgt	.LBB1_2
.Ltmp16:
@ BB#1:
	@DEBUG_VALUE: LowPassFilter:this <- %R4
	@DEBUG_VALUE: LowPassFilter:iDeltaTime <- %S18
	@DEBUG_VALUE: LowPassFilter:iCutOffFrequency <- %S16
	.file	29 "/usr/bin/../lib/gcc/arm-linux-gnueabihf/6.3.0/../../../../include/c++/6.3.0" "ostream"
	.loc	29 561 2                @ /usr/bin/../lib/gcc/arm-linux-gnueabihf/6.3.0/../../../../include/c++/6.3.0/ostream:561:2
	movw	r0, :lower16:_ZSt4cout
	movw	r1, :lower16:.L.str
	movt	r0, :upper16:_ZSt4cout
.Ltmp17:
	@DEBUG_VALUE: operator<<<std::char_traits<char> >:__out <- %R0
	movt	r1, :upper16:.L.str
.Ltmp18:
	@DEBUG_VALUE: operator<<<std::char_traits<char> >:__s <- %R1
	mov	r2, #77
	bl	_ZSt16__ostream_insertIcSt11char_traitsIcEERSt13basic_ostreamIT_T0_ES6_PKS3_i
.Ltmp19:
	.loc	27 21 8                 @ /root/Bela/projects/assignment2/LowPassFilter.cpp:21:8
	str	r5, [r4, #4]
.Ltmp20:
.LBB1_2:
	@DEBUG_VALUE: LowPassFilter:this <- %R4
	@DEBUG_VALUE: LowPassFilter:iDeltaTime <- %S18
	@DEBUG_VALUE: LowPassFilter:iCutOffFrequency <- %S16
	.loc	27 23 5                 @ /root/Bela/projects/assignment2/LowPassFilter.cpp:23:5
	vcmpe.f32	s16, #0
	vmrs	APSR_nzcv, fpscr
	bgt	.LBB1_4
.Ltmp21:
@ BB#3:
	@DEBUG_VALUE: LowPassFilter:this <- %R4
	@DEBUG_VALUE: LowPassFilter:iDeltaTime <- %S18
	@DEBUG_VALUE: LowPassFilter:iCutOffFrequency <- %S16
	.loc	29 561 2                @ /usr/bin/../lib/gcc/arm-linux-gnueabihf/6.3.0/../../../../include/c++/6.3.0/ostream:561:2
	movw	r0, :lower16:_ZSt4cout
	movw	r1, :lower16:.L.str.1
	movt	r0, :upper16:_ZSt4cout
.Ltmp22:
	@DEBUG_VALUE: operator<<<std::char_traits<char> >:__out <- %R0
	movt	r1, :upper16:.L.str.1
.Ltmp23:
	@DEBUG_VALUE: operator<<<std::char_traits<char> >:__s <- %R1
	mov	r2, #85
	bl	_ZSt16__ostream_insertIcSt11char_traitsIcEERSt13basic_ostreamIT_T0_ES6_PKS3_i
.Ltmp24:
	.loc	27 25 8                 @ /root/Bela/projects/assignment2/LowPassFilter.cpp:25:8
	mov	r0, #0
	str	r0, [r4, #4]
.Ltmp25:
.LBB1_4:
	@DEBUG_VALUE: LowPassFilter:this <- %R4
	@DEBUG_VALUE: LowPassFilter:iDeltaTime <- %S18
	@DEBUG_VALUE: LowPassFilter:iCutOffFrequency <- %S16
	.loc	27 28 1                 @ /root/Bela/projects/assignment2/LowPassFilter.cpp:28:1
	mov	r0, r4
	vpop	{d8, d9}
.Ltmp26:
	pop	{r4, r5, r11, pc}
.Ltmp27:
	.p2align	3
@ BB#5:
.LCPI1_0:
	.long	1413754136              @ double 3.1415926535897931
	.long	1074340347
.Lfunc_end1:
	.size	_ZN13LowPassFilterC2Eff, .Lfunc_end1-_ZN13LowPassFilterC2Eff
	.cfi_endproc
	.file	30 "/usr/bin/../lib/gcc/arm-linux-gnueabihf/6.3.0/../../../../include/c++/6.3.0/bits" "char_traits.h"
	.fnend

	.globl	_ZN13LowPassFilter6updateEf
	.p2align	2
	.type	_ZN13LowPassFilter6updateEf,%function
_ZN13LowPassFilter6updateEf:            @ @_ZN13LowPassFilter6updateEf
.Lfunc_begin2:
	.loc	27 30 0                 @ /root/Bela/projects/assignment2/LowPassFilter.cpp:30:0
	.fnstart
	.cfi_startproc
@ BB#0:
	@DEBUG_VALUE: update:this <- %R0
	@DEBUG_VALUE: update:input <- %S0
	.loc	27 31 28 prologue_end   @ /root/Bela/projects/assignment2/LowPassFilter.cpp:31:28
	vldr	s2, [r0]
                                        @ kill: %S0<def> %S0<kill> %D0<def>
.Ltmp28:
	.loc	27 31 38 is_stmt 0      @ /root/Bela/projects/assignment2/LowPassFilter.cpp:31:38
	vldr	s4, [r0, #4]
	.loc	27 31 26                @ /root/Bela/projects/assignment2/LowPassFilter.cpp:31:26
	vsub.f32	d16, d0, d1
	.loc	27 31 36                @ /root/Bela/projects/assignment2/LowPassFilter.cpp:31:36
	vmul.f32	d16, d16, d2
	.loc	27 31 16                @ /root/Bela/projects/assignment2/LowPassFilter.cpp:31:16
	vadd.f32	d0, d16, d1
	vstr	s0, [r0]
	.loc	27 31 2                 @ /root/Bela/projects/assignment2/LowPassFilter.cpp:31:2
                                        @ kill: %S0<def> %S0<kill> %D0<kill>
	bx	lr
.Ltmp29:
.Lfunc_end2:
	.size	_ZN13LowPassFilter6updateEf, .Lfunc_end2-_ZN13LowPassFilter6updateEf
	.cfi_endproc
	.fnend

	.globl	_ZN13LowPassFilter6updateEfff
	.p2align	3
	.type	_ZN13LowPassFilter6updateEfff,%function
_ZN13LowPassFilter6updateEfff:          @ @_ZN13LowPassFilter6updateEfff
.Lfunc_begin3:
	.loc	27 34 0 is_stmt 1       @ /root/Bela/projects/assignment2/LowPassFilter.cpp:34:0
	.fnstart
	.cfi_startproc
@ BB#0:
	.save	{r4, r10, r11, lr}
	push	{r4, r10, r11, lr}
.Ltmp30:
	.cfi_def_cfa_offset 16
.Ltmp31:
	.cfi_offset lr, -4
.Ltmp32:
	.cfi_offset r11, -8
.Ltmp33:
	.cfi_offset r10, -12
.Ltmp34:
	.cfi_offset r4, -16
	.setfp	r11, sp, #8
	add	r11, sp, #8
.Ltmp35:
	.cfi_def_cfa r11, 8
	.vsave	{d8, d9, d10}
	vpush	{d8, d9, d10}
.Ltmp36:
	.cfi_offset d10, -24
.Ltmp37:
	.cfi_offset d9, -32
.Ltmp38:
	.cfi_offset d8, -40
	@DEBUG_VALUE: update:this <- %R0
	@DEBUG_VALUE: update:input <- %S0
	@DEBUG_VALUE: update:deltaTime <- %S1
	@DEBUG_VALUE: update:cutoffFrequency <- %S2
	vmov.f32	s20, s1
.Ltmp39:
	@DEBUG_VALUE: update:deltaTime <- %S20
	mov	r4, r0
.Ltmp40:
	@DEBUG_VALUE: reconfigureFilter:deltaTime <- %S20
	@DEBUG_VALUE: update:this <- %R4
	vmov.f32	s18, s2
.Ltmp41:
	@DEBUG_VALUE: update:cutoffFrequency <- %S18
	vmov.f64	d8, d0
.Ltmp42:
	@DEBUG_VALUE: update:input <- %S16
	.loc	27 41 6 prologue_end    @ /root/Bela/projects/assignment2/LowPassFilter.cpp:41:6
	vcmpe.f32	s20, #0
	vmrs	APSR_nzcv, fpscr
	bgt	.LBB3_2
.Ltmp43:
@ BB#1:
	@DEBUG_VALUE: update:input <- %S16
	@DEBUG_VALUE: update:cutoffFrequency <- %S18
	@DEBUG_VALUE: update:this <- %R4
	@DEBUG_VALUE: reconfigureFilter:deltaTime <- %S20
	@DEBUG_VALUE: update:deltaTime <- %S20
	.loc	29 561 2                @ /usr/bin/../lib/gcc/arm-linux-gnueabihf/6.3.0/../../../../include/c++/6.3.0/ostream:561:2
	movw	r0, :lower16:_ZSt4cout
	movw	r1, :lower16:.L.str
	movt	r0, :upper16:_ZSt4cout
.Ltmp44:
	@DEBUG_VALUE: operator<<<std::char_traits<char> >:__out <- %R0
	movt	r1, :upper16:.L.str
.Ltmp45:
	@DEBUG_VALUE: operator<<<std::char_traits<char> >:__s <- %R1
	mov	r2, #77
	bl	_ZSt16__ostream_insertIcSt11char_traitsIcEERSt13basic_ostreamIT_T0_ES6_PKS3_i
.Ltmp46:
	.loc	27 43 8                 @ /root/Bela/projects/assignment2/LowPassFilter.cpp:43:8
	mov	r0, #0
	str	r0, [r4, #4]
.Ltmp47:
.LBB3_2:
	@DEBUG_VALUE: update:input <- %S16
	@DEBUG_VALUE: update:cutoffFrequency <- %S18
	@DEBUG_VALUE: update:this <- %R4
	@DEBUG_VALUE: reconfigureFilter:deltaTime <- %S20
	@DEBUG_VALUE: update:deltaTime <- %S20
	.loc	27 45 5                 @ /root/Bela/projects/assignment2/LowPassFilter.cpp:45:5
	vcmpe.f32	s18, #0
	vmrs	APSR_nzcv, fpscr
	bgt	.LBB3_4
.Ltmp48:
@ BB#3:
	@DEBUG_VALUE: update:input <- %S16
	@DEBUG_VALUE: update:cutoffFrequency <- %S18
	@DEBUG_VALUE: update:this <- %R4
	@DEBUG_VALUE: reconfigureFilter:deltaTime <- %S20
	@DEBUG_VALUE: update:deltaTime <- %S20
	.loc	29 561 2                @ /usr/bin/../lib/gcc/arm-linux-gnueabihf/6.3.0/../../../../include/c++/6.3.0/ostream:561:2
	movw	r0, :lower16:_ZSt4cout
	movw	r1, :lower16:.L.str.1
	movt	r0, :upper16:_ZSt4cout
.Ltmp49:
	@DEBUG_VALUE: operator<<<std::char_traits<char> >:__out <- %R0
	movt	r1, :upper16:.L.str.1
.Ltmp50:
	@DEBUG_VALUE: operator<<<std::char_traits<char> >:__s <- %R1
	mov	r2, #85
	bl	_ZSt16__ostream_insertIcSt11char_traitsIcEERSt13basic_ostreamIT_T0_ES6_PKS3_i
.Ltmp51:
	.loc	27 47 8                 @ /root/Bela/projects/assignment2/LowPassFilter.cpp:47:8
	mov	r0, #0
	str	r0, [r4, #4]
.Ltmp52:
.LBB3_4:                                @ %_ZN13LowPassFilter17reconfigureFilterEff.exit
	@DEBUG_VALUE: update:input <- %S16
	@DEBUG_VALUE: update:cutoffFrequency <- %S18
	@DEBUG_VALUE: update:this <- %R4
	@DEBUG_VALUE: reconfigureFilter:deltaTime <- %S20
	@DEBUG_VALUE: update:deltaTime <- %S20
	.loc	27 50 26                @ /root/Bela/projects/assignment2/LowPassFilter.cpp:50:26
	vmov.f32	d16, #-2.000000e+00
	.loc	27 50 30 is_stmt 0      @ /root/Bela/projects/assignment2/LowPassFilter.cpp:50:30
	vldr	d17, .LCPI3_0
	.loc	27 50 26                @ /root/Bela/projects/assignment2/LowPassFilter.cpp:50:26
	vmul.f32	d0, d10, d16
	.loc	27 50 15                @ /root/Bela/projects/assignment2/LowPassFilter.cpp:50:15
	vcvt.f64.f32	d16, s0
	.loc	27 50 30                @ /root/Bela/projects/assignment2/LowPassFilter.cpp:50:30
	vmul.f64	d16, d16, d17
	.loc	27 50 57                @ /root/Bela/projects/assignment2/LowPassFilter.cpp:50:57
	vcvt.f64.f32	d17, s18
	.loc	27 50 55                @ /root/Bela/projects/assignment2/LowPassFilter.cpp:50:55
	vmul.f64	d0, d16, d17
	.loc	27 50 11                @ /root/Bela/projects/assignment2/LowPassFilter.cpp:50:11
	bl	__exp_finite
	.loc	27 50 10                @ /root/Bela/projects/assignment2/LowPassFilter.cpp:50:10
	vmov.f64	d16, #1.000000e+00
	vsub.f64	d16, d16, d0
	.loc	27 50 9                 @ /root/Bela/projects/assignment2/LowPassFilter.cpp:50:9
	vcvt.f32.f64	s0, d16
	.loc	27 50 7                 @ /root/Bela/projects/assignment2/LowPassFilter.cpp:50:7
	vstr	s0, [r4, #4]
.Ltmp53:
	.loc	27 36 28 is_stmt 1      @ /root/Bela/projects/assignment2/LowPassFilter.cpp:36:28
	vldr	s2, [r4]
	.loc	27 36 26 is_stmt 0      @ /root/Bela/projects/assignment2/LowPassFilter.cpp:36:26
	vsub.f32	d16, d8, d1
	.loc	27 36 36                @ /root/Bela/projects/assignment2/LowPassFilter.cpp:36:36
	vmul.f32	d16, d16, d0
	.loc	27 36 16                @ /root/Bela/projects/assignment2/LowPassFilter.cpp:36:16
	vadd.f32	d0, d16, d1
	vstr	s0, [r4]
	.loc	27 36 2                 @ /root/Bela/projects/assignment2/LowPassFilter.cpp:36:2
                                        @ kill: %S0<def> %S0<kill> %D0<kill>
	vpop	{d8, d9, d10}
.Ltmp54:
	pop	{r4, r10, r11, pc}
.Ltmp55:
	.p2align	3
@ BB#5:
.LCPI3_0:
	.long	1413754136              @ double 3.1415926535897931
	.long	1074340347
.Lfunc_end3:
	.size	_ZN13LowPassFilter6updateEfff, .Lfunc_end3-_ZN13LowPassFilter6updateEfff
	.cfi_endproc
	.fnend

	.globl	_ZN13LowPassFilter17reconfigureFilterEff
	.p2align	3
	.type	_ZN13LowPassFilter17reconfigureFilterEff,%function
_ZN13LowPassFilter17reconfigureFilterEff: @ @_ZN13LowPassFilter17reconfigureFilterEff
.Lfunc_begin4:
	.loc	27 39 0 is_stmt 1       @ /root/Bela/projects/assignment2/LowPassFilter.cpp:39:0
	.fnstart
	.cfi_startproc
@ BB#0:
	.save	{r4, r10, r11, lr}
	push	{r4, r10, r11, lr}
.Ltmp56:
	.cfi_def_cfa_offset 16
.Ltmp57:
	.cfi_offset lr, -4
.Ltmp58:
	.cfi_offset r11, -8
.Ltmp59:
	.cfi_offset r10, -12
.Ltmp60:
	.cfi_offset r4, -16
	.setfp	r11, sp, #8
	add	r11, sp, #8
.Ltmp61:
	.cfi_def_cfa r11, 8
	.vsave	{d8, d9}
	vpush	{d8, d9}
.Ltmp62:
	.cfi_offset d9, -24
.Ltmp63:
	.cfi_offset d8, -32
	@DEBUG_VALUE: reconfigureFilter:this <- %R0
	@DEBUG_VALUE: reconfigureFilter:deltaTime <- %S0
	@DEBUG_VALUE: reconfigureFilter:cutoffFrequency <- %S1
	vmov.f32	s16, s1
.Ltmp64:
	@DEBUG_VALUE: reconfigureFilter:cutoffFrequency <- %S16
	mov	r4, r0
.Ltmp65:
	@DEBUG_VALUE: reconfigureFilter:this <- %R4
	vmov.f64	d9, d0
.Ltmp66:
	@DEBUG_VALUE: reconfigureFilter:deltaTime <- %S18
	.loc	27 41 6 prologue_end    @ /root/Bela/projects/assignment2/LowPassFilter.cpp:41:6
	vcmpe.f32	s18, #0
	vmrs	APSR_nzcv, fpscr
	bgt	.LBB4_2
.Ltmp67:
@ BB#1:
	@DEBUG_VALUE: reconfigureFilter:deltaTime <- %S18
	@DEBUG_VALUE: reconfigureFilter:this <- %R4
	@DEBUG_VALUE: reconfigureFilter:cutoffFrequency <- %S16
	.loc	29 561 2                @ /usr/bin/../lib/gcc/arm-linux-gnueabihf/6.3.0/../../../../include/c++/6.3.0/ostream:561:2
	movw	r0, :lower16:_ZSt4cout
	movw	r1, :lower16:.L.str
	movt	r0, :upper16:_ZSt4cout
.Ltmp68:
	@DEBUG_VALUE: operator<<<std::char_traits<char> >:__out <- %R0
	movt	r1, :upper16:.L.str
.Ltmp69:
	@DEBUG_VALUE: operator<<<std::char_traits<char> >:__s <- %R1
	mov	r2, #77
	bl	_ZSt16__ostream_insertIcSt11char_traitsIcEERSt13basic_ostreamIT_T0_ES6_PKS3_i
.Ltmp70:
	.loc	27 43 8                 @ /root/Bela/projects/assignment2/LowPassFilter.cpp:43:8
	mov	r0, #0
	str	r0, [r4, #4]
.Ltmp71:
.LBB4_2:
	@DEBUG_VALUE: reconfigureFilter:deltaTime <- %S18
	@DEBUG_VALUE: reconfigureFilter:this <- %R4
	@DEBUG_VALUE: reconfigureFilter:cutoffFrequency <- %S16
	.loc	27 45 5                 @ /root/Bela/projects/assignment2/LowPassFilter.cpp:45:5
	vcmpe.f32	s16, #0
	vmrs	APSR_nzcv, fpscr
	ble	.LBB4_4
.Ltmp72:
@ BB#3:                                 @ %._crit_edge
	@DEBUG_VALUE: reconfigureFilter:deltaTime <- %S18
	@DEBUG_VALUE: reconfigureFilter:this <- %R4
	@DEBUG_VALUE: reconfigureFilter:cutoffFrequency <- %S16
	.loc	27 50 2                 @ /root/Bela/projects/assignment2/LowPassFilter.cpp:50:2
	add	r4, r4, #4
.Ltmp73:
	b	.LBB4_5
.Ltmp74:
.LBB4_4:
	@DEBUG_VALUE: reconfigureFilter:deltaTime <- %S18
	@DEBUG_VALUE: reconfigureFilter:this <- %R4
	@DEBUG_VALUE: reconfigureFilter:cutoffFrequency <- %S16
	.loc	29 561 2                @ /usr/bin/../lib/gcc/arm-linux-gnueabihf/6.3.0/../../../../include/c++/6.3.0/ostream:561:2
	movw	r0, :lower16:_ZSt4cout
	movw	r1, :lower16:.L.str.1
	movt	r0, :upper16:_ZSt4cout
.Ltmp75:
	@DEBUG_VALUE: operator<<<std::char_traits<char> >:__out <- %R0
	movt	r1, :upper16:.L.str.1
.Ltmp76:
	@DEBUG_VALUE: operator<<<std::char_traits<char> >:__s <- %R1
	mov	r2, #85
	bl	_ZSt16__ostream_insertIcSt11char_traitsIcEERSt13basic_ostreamIT_T0_ES6_PKS3_i
.Ltmp77:
	.loc	27 47 8                 @ /root/Bela/projects/assignment2/LowPassFilter.cpp:47:8
	mov	r0, #0
	str	r0, [r4, #4]!
.Ltmp78:
.LBB4_5:
	@DEBUG_VALUE: reconfigureFilter:deltaTime <- %S18
	@DEBUG_VALUE: reconfigureFilter:cutoffFrequency <- %S16
	.loc	27 50 26                @ /root/Bela/projects/assignment2/LowPassFilter.cpp:50:26
	vmov.f32	d16, #-2.000000e+00
	.loc	27 50 30 is_stmt 0      @ /root/Bela/projects/assignment2/LowPassFilter.cpp:50:30
	vldr	d17, .LCPI4_0
	.loc	27 50 26                @ /root/Bela/projects/assignment2/LowPassFilter.cpp:50:26
	vmul.f32	d0, d9, d16
	.loc	27 50 15                @ /root/Bela/projects/assignment2/LowPassFilter.cpp:50:15
	vcvt.f64.f32	d16, s0
	.loc	27 50 30                @ /root/Bela/projects/assignment2/LowPassFilter.cpp:50:30
	vmul.f64	d16, d16, d17
	.loc	27 50 57                @ /root/Bela/projects/assignment2/LowPassFilter.cpp:50:57
	vcvt.f64.f32	d17, s16
	.loc	27 50 55                @ /root/Bela/projects/assignment2/LowPassFilter.cpp:50:55
	vmul.f64	d0, d16, d17
	.loc	27 50 11                @ /root/Bela/projects/assignment2/LowPassFilter.cpp:50:11
	bl	__exp_finite
	.loc	27 50 10                @ /root/Bela/projects/assignment2/LowPassFilter.cpp:50:10
	vmov.f64	d16, #1.000000e+00
	vsub.f64	d16, d16, d0
	.loc	27 50 9                 @ /root/Bela/projects/assignment2/LowPassFilter.cpp:50:9
	vcvt.f32.f64	s0, d16
	.loc	27 50 7                 @ /root/Bela/projects/assignment2/LowPassFilter.cpp:50:7
	vstr	s0, [r4]
	.loc	27 51 1 is_stmt 1       @ /root/Bela/projects/assignment2/LowPassFilter.cpp:51:1
	vpop	{d8, d9}
.Ltmp79:
	pop	{r4, r10, r11, pc}
.Ltmp80:
	.p2align	3
@ BB#6:
.LCPI4_0:
	.long	1413754136              @ double 3.1415926535897931
	.long	1074340347
.Lfunc_end4:
	.size	_ZN13LowPassFilter17reconfigureFilterEff, .Lfunc_end4-_ZN13LowPassFilter17reconfigureFilterEff
	.cfi_endproc
	.fnend

	.section	.text.startup,"ax",%progbits
	.p2align	2
	.type	_GLOBAL__sub_I_LowPassFilter.ii,%function
_GLOBAL__sub_I_LowPassFilter.ii:        @ @_GLOBAL__sub_I_LowPassFilter.ii
.Lfunc_begin5:
	.file	31 "/root/Bela/projects/assignment2/build" "LowPassFilter.cpp"
	.loc	31 0 0                  @ /root/Bela/projects/assignment2/build/LowPassFilter.cpp:0:0
	.fnstart
	.cfi_startproc
@ BB#0:
	.save	{r4, r10, r11, lr}
	push	{r4, r10, r11, lr}
.Ltmp81:
	.cfi_def_cfa_offset 16
.Ltmp82:
	.cfi_offset lr, -4
.Ltmp83:
	.cfi_offset r11, -8
.Ltmp84:
	.cfi_offset r10, -12
.Ltmp85:
	.cfi_offset r4, -16
	.setfp	r11, sp, #8
	add	r11, sp, #8
.Ltmp86:
	.cfi_def_cfa r11, 8
.Ltmp87:
	.loc	4 74 25 prologue_end    @ /usr/bin/../lib/gcc/arm-linux-gnueabihf/6.3.0/../../../../include/c++/6.3.0/iostream:74:25
	movw	r4, :lower16:_ZStL8__ioinit
	movt	r4, :upper16:_ZStL8__ioinit
	mov	r0, r4
	bl	_ZNSt8ios_base4InitC1Ev
	.loc	4 74 25 is_stmt 0 discriminator 1 @ /usr/bin/../lib/gcc/arm-linux-gnueabihf/6.3.0/../../../../include/c++/6.3.0/iostream:74:25
	movw	r0, :lower16:_ZNSt8ios_base4InitD1Ev
	movw	r2, :lower16:__dso_handle
	movt	r0, :upper16:_ZNSt8ios_base4InitD1Ev
	movt	r2, :upper16:__dso_handle
	mov	r1, r4
	pop	{r4, r10, r11, lr}
	b	__cxa_atexit
.Ltmp88:
.Lfunc_end5:
	.size	_GLOBAL__sub_I_LowPassFilter.ii, .Lfunc_end5-_GLOBAL__sub_I_LowPassFilter.ii
	.cfi_endproc
	.fnend

	.type	_ZStL8__ioinit,%object  @ @_ZStL8__ioinit
	.local	_ZStL8__ioinit
	.comm	_ZStL8__ioinit,1,1
	.type	.L.str,%object          @ @.str
	.section	.rodata.str1.1,"aMS",%progbits,1
.L.str:
	.asciz	"Warning: A LowPassFilter instance has been configured with 0 s as delta time."
	.size	.L.str, 78

	.type	.L.str.1,%object        @ @.str.1
.L.str.1:
	.asciz	"Warning: A LowPassFilter instance has been configured with 0 Hz as cut-off frequency."
	.size	.L.str.1, 86

	.section	.init_array,"aw",%init_array
	.p2align	2
	.long	_GLOBAL__sub_I_LowPassFilter.ii(target1)
	.section	".note.GNU-stack","",%progbits
	.eabi_attribute	30, 2	@ Tag_ABI_optimization_goals