	.text
	.syntax unified
	.eabi_attribute	67, "2.09"	@ Tag_conformance
	.cpu	cortex-a8
	.eabi_attribute	6, 10	@ Tag_CPU_arch
	.eabi_attribute	7, 65	@ Tag_CPU_arch_profile
	.eabi_attribute	8, 1	@ Tag_ARM_ISA_use
	.eabi_attribute	9, 2	@ Tag_THUMB_ISA_use
	.fpu	neon
	.eabi_attribute	17, 1	@ Tag_ABI_PCS_GOT_use
	.eabi_attribute	20, 2	@ Tag_ABI_FP_denormal
	.eabi_attribute	23, 1	@ Tag_ABI_FP_number_model
	.eabi_attribute	34, 1	@ Tag_CPU_unaligned_access
	.eabi_attribute	24, 1	@ Tag_ABI_align_needed
	.eabi_attribute	25, 1	@ Tag_ABI_align_preserved
	.eabi_attribute	28, 1	@ Tag_ABI_VFP_args
	.eabi_attribute	38, 1	@ Tag_ABI_FP_16bit_format
	.eabi_attribute	18, 4	@ Tag_ABI_PCS_wchar_t
	.eabi_attribute	26, 2	@ Tag_ABI_enum_size
	.eabi_attribute	14, 0	@ Tag_ABI_PCS_R9_use
	.eabi_attribute	68, 1	@ Tag_Virtualization_use
	.file	"/root/Bela/projects/assignment2_part1/build/render.bc"
	.file	1 "./libraries/Biquad" "Biquad.h"
	.file	2 "/root/Bela/projects/assignment2_part1" "render.cpp"
	.file	3 "./libraries/Scope" "Scope.h"
	.file	4 "/usr/bin/../lib/gcc/arm-linux-gnueabihf/6.3.0/../../../../include/arm-linux-gnueabihf/c++/6.3.0/bits" "c++config.h"
	.file	5 "/usr/bin/../lib/gcc/arm-linux-gnueabihf/6.3.0/../../../../include/c++/6.3.0/bits" "alloc_traits.h"
	.file	6 "/usr/bin/../lib/gcc/arm-linux-gnueabihf/6.3.0/../../../../include/c++/6.3.0/ext" "new_allocator.h"
	.file	7 "/usr/bin/../lib/gcc/arm-linux-gnueabihf/6.3.0/../../../../include/arm-linux-gnueabihf/c++/6.3.0/bits" "c++allocator.h"
	.file	8 "/usr/bin/../lib/gcc/arm-linux-gnueabihf/6.3.0/../../../../include/c++/6.3.0/bits" "allocator.h"
	.file	9 "/usr/bin/../lib/gcc/arm-linux-gnueabihf/6.3.0/../../../../include/c++/6.3.0/ext" "alloc_traits.h"
	.file	10 "/usr/bin/../lib/gcc/arm-linux-gnueabihf/6.3.0/../../../../include/c++/6.3.0/bits" "stl_vector.h"
	.file	11 "/usr/bin/../lib/gcc/arm-linux-gnueabihf/6.3.0/../../../../include/c++/6.3.0" "type_traits"
	.file	12 "/usr/include/ne10" "NE10_types.h"
	.file	13 "/usr/bin/../lib/gcc/arm-linux-gnueabihf/6.3.0/../../../../include/c++/6.3.0/bits" "unique_ptr.h"
	.file	14 "/usr/bin/../lib/gcc/arm-linux-gnueabihf/6.3.0/../../../../include/c++/6.3.0" "tuple"
	.file	15 "/usr/bin/../lib/gcc/arm-linux-gnueabihf/6.3.0/../../../../include/c++/6.3.0/bits" "uses_allocator.h"
	.file	16 "/usr/bin/../lib/gcc/arm-linux-gnueabihf/6.3.0/../../../../include/c++/6.3.0/bits" "stl_tree.h"
	.file	17 "/usr/bin/../lib/gcc/arm-linux-gnueabihf/6.3.0/../../../../include/c++/6.3.0/bits" "stl_function.h"
	.file	18 "/usr/bin/../lib/gcc/arm-linux-gnueabihf/6.3.0/../../../../include/c++/6.3.0/bits" "stl_pair.h"
	.file	19 "/usr/bin/../lib/gcc/arm-linux-gnueabihf/6.3.0/../../../../include/c++/6.3.0/bits" "stl_map.h"
	.file	20 "/usr/bin/../lib/gcc/arm-linux-gnueabihf/6.3.0/../../../../include/c++/6.3.0/bits" "stringfwd.h"
	.file	21 "/usr/bin/../lib/gcc/arm-linux-gnueabihf/6.3.0/../../../../include/c++/6.3.0/ext" "concurrence.h"
	.file	22 "./include" "Bela.h"
	.file	23 "./include" "GPIOcontrol.h"
	.file	24 "/usr/include/arm-linux-gnueabihf/bits" "math-finite.h"
	.file	25 "/usr/include/arm-linux-gnueabihf/bits" "mathcalls.h"
	.file	26 "/usr/include/arm-linux-gnueabihf/bits" "mathdef.h"
	.file	27 "/usr/bin/../lib/gcc/arm-linux-gnueabihf/6.3.0/../../../../include/c++/6.3.0/debug" "debug.h"
	.file	28 "/usr/bin/../lib/gcc/arm-linux-gnueabihf/6.3.0/../../../../include/c++/6.3.0/bits" "exception_ptr.h"
	.file	29 "/usr/include" "wchar.h"
	.file	30 "/usr/lib/llvm-3.9/bin/../lib/clang/3.9.1/include" "stddef.h"
	.file	31 "/usr/include" "libio.h"
	.file	32 "/usr/include/arm-linux-gnueabihf/bits" "types.h"
	.file	33 "/usr/include" "stdio.h"
	.file	34 "/usr/lib/llvm-3.9/bin/../lib/clang/3.9.1/include" "stdarg.h"
	.file	35 "/usr/include" "stdint.h"
	.file	36 "/usr/include" "locale.h"
	.file	37 "/usr/include" "ctype.h"
	.file	38 "/usr/include" "stdlib.h"
	.file	39 "/usr/include/arm-linux-gnueabihf/bits" "stdlib-float.h"
	.file	40 "/usr/include/arm-linux-gnueabihf/bits" "stdlib-bsearch.h"
	.file	41 "/usr/bin/../lib/gcc/arm-linux-gnueabihf/6.3.0/../../../../include/c++/6.3.0" "cstdlib"
	.file	42 "/usr/include" "_G_config.h"
	.file	43 "/usr/include/arm-linux-gnueabihf/bits" "stdio.h"
	.globl	setup
	.p2align	2
	.type	setup,%function
setup:                                  @ @setup
.Lfunc_begin0:
	.loc	2 124 0                 @ /root/Bela/projects/assignment2_part1/render.cpp:124:0
	.fnstart
	.cfi_startproc
@ BB#0:
	.save	{r4, r5, r6, r10, r11, lr}
	push	{r4, r5, r6, r10, r11, lr}
.Ltmp0:
	.cfi_def_cfa_offset 24
.Ltmp1:
	.cfi_offset lr, -4
.Ltmp2:
	.cfi_offset r11, -8
.Ltmp3:
	.cfi_offset r10, -12
.Ltmp4:
	.cfi_offset r6, -16
.Ltmp5:
	.cfi_offset r5, -20
.Ltmp6:
	.cfi_offset r4, -24
	.setfp	r11, sp, #16
	add	r11, sp, #16
.Ltmp7:
	.cfi_def_cfa r11, 8
	.pad	#40
	sub	sp, sp, #40
	@DEBUG_VALUE: setup:context <- %R0
	@DEBUG_VALUE: setup:userData <- %R1
	mov	r4, r0
.Ltmp8:
	@DEBUG_VALUE: setup:context <- %R4
	.loc	2 126 14 prologue_end   @ /root/Bela/projects/assignment2_part1/render.cpp:126:14
	ldr	r0, [r4, #20]
	.loc	2 126 38 is_stmt 0      @ /root/Bela/projects/assignment2_part1/render.cpp:126:38
	ldr	r1, [r4, #52]
.Ltmp9:
	.loc	2 126 5                 @ /root/Bela/projects/assignment2_part1/render.cpp:126:5
	cmp	r0, r1
	bne	.LBB0_11
.Ltmp10:
@ BB#1:                                 @ %.preheader.preheader
	@DEBUG_VALUE: setup:context <- %R4
	.loc	2 132 26 is_stmt 1      @ /root/Bela/projects/assignment2_part1/render.cpp:132:26
	movw	r0, :lower16:.L_MergedGlobals.5
	vmov.i32	q8, #0x0
	movt	r0, :upper16:.L_MergedGlobals.5
	add	r1, r0, #48
	.loc	2 133 38                @ /root/Bela/projects/assignment2_part1/render.cpp:133:38
	mov	r2, #64
	.loc	2 132 26                @ /root/Bela/projects/assignment2_part1/render.cpp:132:26
	vst1.64	{d16, d17}, [r1:128]
	add	r1, r0, #32
	vst1.64	{d16, d17}, [r1:128]
	.loc	2 133 38                @ /root/Bela/projects/assignment2_part1/render.cpp:133:38
	mov	r1, #255
	.loc	2 132 26                @ /root/Bela/projects/assignment2_part1/render.cpp:132:26
	vst1.64	{d16, d17}, [r0:128]!
	vst1.64	{d16, d17}, [r0:128]
	.loc	2 133 38                @ /root/Bela/projects/assignment2_part1/render.cpp:133:38
	movw	r0, :lower16:.L_MergedGlobals.6
	movt	r0, :upper16:.L_MergedGlobals.6
	bl	memset
.Ltmp11:
	@DEBUG_VALUE: pinMode:f <- 0
	@DEBUG_VALUE: pinMode:frame <- 0
	.loc	22 1356 30 discriminator 1 @ ./include/Bela.h:1356:30
	ldr	r0, [r4, #52]
	.loc	22 1356 2 is_stmt 0 discriminator 1 @ ./include/Bela.h:1356:2
	cmp	r0, #0
	beq	.LBB0_10
.Ltmp12:
@ BB#2:                                 @ %.lr.ph.i
	@DEBUG_VALUE: setup:context <- %R4
	.loc	22 1358 13 is_stmt 1    @ ./include/Bela.h:1358:13
	ldr	r0, [r4, #16]
	mov	r1, #0
.Ltmp13:
.LBB0_3:                                @ %.lr.ph.split.us.i
                                        @ =>This Inner Loop Header: Depth=1
	.loc	22 1358 24 is_stmt 0    @ ./include/Bela.h:1358:24
	ldr	r2, [r0, r1, lsl #2]
	orr	r2, r2, #2
	str	r2, [r0, r1, lsl #2]
.Ltmp14:
	.loc	22 1356 46 is_stmt 1 discriminator 2 @ ./include/Bela.h:1356:46
	add	r1, r1, #1
.Ltmp15:
	@DEBUG_VALUE: pinMode:f <- %R1
	.loc	22 1356 30 is_stmt 0 discriminator 1 @ ./include/Bela.h:1356:30
	ldr	r2, [r4, #52]
	.loc	22 1356 2 discriminator 1 @ ./include/Bela.h:1356:2
	cmp	r1, r2
	blo	.LBB0_3
.Ltmp16:
@ BB#4:                                 @ %_ZL7pinModeP11BelaContextiii.exit
	@DEBUG_VALUE: pinMode:f <- %R1
	@DEBUG_VALUE: pinMode:frame <- 0
	@DEBUG_VALUE: pinMode:f <- 0
	.loc	22 1356 2 discriminator 1 @ ./include/Bela.h:1356:2
	cmp	r2, #0
	beq	.LBB0_10
.Ltmp17:
@ BB#5:                                 @ %.lr.ph.split.us.i19.preheader
	@DEBUG_VALUE: pinMode:f <- %R1
	mov	r1, #0
.Ltmp18:
.LBB0_6:                                @ %.lr.ph.split.us.i19
                                        @ =>This Inner Loop Header: Depth=1
	.loc	22 1358 24 is_stmt 1    @ ./include/Bela.h:1358:24
	ldr	r2, [r0, r1, lsl #2]
	orr	r2, r2, #2
	str	r2, [r0, r1, lsl #2]
.Ltmp19:
	.loc	22 1356 46 discriminator 2 @ ./include/Bela.h:1356:46
	add	r1, r1, #1
.Ltmp20:
	@DEBUG_VALUE: pinMode:f <- %R1
	.loc	22 1356 30 is_stmt 0 discriminator 1 @ ./include/Bela.h:1356:30
	ldr	r2, [r4, #52]
	.loc	22 1356 2 discriminator 1 @ ./include/Bela.h:1356:2
	cmp	r1, r2
	blo	.LBB0_6
.Ltmp21:
@ BB#7:                                 @ %_ZL7pinModeP11BelaContextiii.exit20
	@DEBUG_VALUE: pinMode:f <- %R1
	@DEBUG_VALUE: pinMode:frame <- 0
	@DEBUG_VALUE: pinMode:f <- 0
	.loc	22 1356 2 discriminator 1 @ ./include/Bela.h:1356:2
	cmp	r2, #0
	beq	.LBB0_10
.Ltmp22:
@ BB#8:                                 @ %.lr.ph.i14
	@DEBUG_VALUE: pinMode:f <- %R1
	.loc	22 1358 13 is_stmt 1    @ ./include/Bela.h:1358:13
	ldr	r0, [r4, #16]
	mov	r1, #0
.Ltmp23:
.LBB0_9:                                @ %.lr.ph.split.i
                                        @ =>This Inner Loop Header: Depth=1
	.loc	22 1360 24              @ ./include/Bela.h:1360:24
	ldr	r2, [r0, r1, lsl #2]
	bfc	r2, #0, #1
	str	r2, [r0, r1, lsl #2]
.Ltmp24:
	.loc	22 1356 46 discriminator 2 @ ./include/Bela.h:1356:46
	add	r1, r1, #1
.Ltmp25:
	@DEBUG_VALUE: pinMode:f <- %R1
	.loc	22 1356 30 is_stmt 0 discriminator 1 @ ./include/Bela.h:1356:30
	ldr	r2, [r4, #52]
	.loc	22 1356 2 discriminator 1 @ ./include/Bela.h:1356:2
	cmp	r1, r2
	blo	.LBB0_9
.Ltmp26:
.LBB0_10:                               @ %_ZL7pinModeP11BelaContextiii.exit15
	.loc	2 142 19 is_stmt 1      @ /root/Bela/projects/assignment2_part1/render.cpp:142:19
	vldr	s0, [r4, #32]
	.loc	2 143 14                @ /root/Bela/projects/assignment2_part1/render.cpp:143:14
	movw	r5, :lower16:.L_MergedGlobals
	movt	r5, :upper16:.L_MergedGlobals
	mov	r0, #0
	.loc	2 142 10                @ /root/Bela/projects/assignment2_part1/render.cpp:142:10
	vcvt.f64.f32	d16, s0
	mov	r6, sp
.Ltmp27:
	@DEBUG_VALUE: setup:settings <- [%R6+0]
	.loc	2 149 11                @ /root/Bela/projects/assignment2_part1/render.cpp:149:11
	mov	r1, r6
	.loc	2 143 14                @ /root/Bela/projects/assignment2_part1/render.cpp:143:14
	vldr	s0, [r5, #84]
	.loc	2 141 27                @ /root/Bela/projects/assignment2_part1/render.cpp:141:27
	vstr	d16, [sp]
	.loc	2 143 14                @ /root/Bela/projects/assignment2_part1/render.cpp:143:14
	vcvt.f64.f32	d16, s0
	.loc	2 141 27                @ /root/Bela/projects/assignment2_part1/render.cpp:141:27
	str	r0, [sp, #8]
	.loc	2 145 9                 @ /root/Bela/projects/assignment2_part1/render.cpp:145:9
	vldr	s0, [r5, #88]
	.loc	2 141 27                @ /root/Bela/projects/assignment2_part1/render.cpp:141:27
	vstr	d16, [sp, #16]
	.loc	2 145 9                 @ /root/Bela/projects/assignment2_part1/render.cpp:145:9
	vcvt.f64.f32	d16, s0
	.loc	2 141 27                @ /root/Bela/projects/assignment2_part1/render.cpp:141:27
	vstr	d16, [sp, #24]
	str	r0, [sp, #36]
	str	r0, [sp, #32]
	.loc	2 149 11                @ /root/Bela/projects/assignment2_part1/render.cpp:149:11
	movw	r0, :lower16:.L_MergedGlobals.7
	movt	r0, :upper16:.L_MergedGlobals.7
	bl	_ZN6Biquad5setupERKNS_8SettingsE
	.loc	2 150 20                @ /root/Bela/projects/assignment2_part1/render.cpp:150:20
	vldr	s0, [r5, #80]
	.loc	2 152 11                @ /root/Bela/projects/assignment2_part1/render.cpp:152:11
	movw	r0, :lower16:.L_MergedGlobals.8
	mov	r5, #1
	movt	r0, :upper16:.L_MergedGlobals.8
	.loc	2 150 20                @ /root/Bela/projects/assignment2_part1/render.cpp:150:20
	vcvt.f64.f32	d16, s0
	.loc	2 152 11                @ /root/Bela/projects/assignment2_part1/render.cpp:152:11
	mov	r1, r6
	.loc	2 150 18                @ /root/Bela/projects/assignment2_part1/render.cpp:150:18
	vstr	d16, [sp, #16]
	.loc	2 151 16                @ /root/Bela/projects/assignment2_part1/render.cpp:151:16
	str	r5, [sp, #8]
	.loc	2 152 11                @ /root/Bela/projects/assignment2_part1/render.cpp:152:11
	bl	_ZN6Biquad5setupERKNS_8SettingsE
	.loc	2 155 9                 @ /root/Bela/projects/assignment2_part1/render.cpp:155:9
	movw	r0, :lower16:gScope
	.loc	2 155 27 is_stmt 0      @ /root/Bela/projects/assignment2_part1/render.cpp:155:27
	vldr	s0, [r4, #32]
	.loc	2 155 9                 @ /root/Bela/projects/assignment2_part1/render.cpp:155:9
	movt	r0, :upper16:gScope
	mov	r1, #2
	bl	_ZN5Scope5setupEjf
	b	.LBB0_12
.Ltmp28:
.LBB0_11:
	@DEBUG_VALUE: setup:context <- %R4
	.loc	2 127 14 is_stmt 1      @ /root/Bela/projects/assignment2_part1/render.cpp:127:14
	movw	r0, :lower16:stderr
	.loc	2 127 3 is_stmt 0       @ /root/Bela/projects/assignment2_part1/render.cpp:127:3
	movw	r1, :lower16:.L.str
	.loc	2 127 14                @ /root/Bela/projects/assignment2_part1/render.cpp:127:14
	movt	r0, :upper16:stderr
	.loc	2 127 3                 @ /root/Bela/projects/assignment2_part1/render.cpp:127:3
	movt	r1, :upper16:.L.str
	.loc	2 127 14                @ /root/Bela/projects/assignment2_part1/render.cpp:127:14
	ldr	r0, [r0]
	.loc	2 127 3                 @ /root/Bela/projects/assignment2_part1/render.cpp:127:3
	bl	rt_fprintf
	mov	r5, #0
.Ltmp29:
.LBB0_12:
	.loc	2 157 1 is_stmt 1 discriminator 1 @ /root/Bela/projects/assignment2_part1/render.cpp:157:1
	mov	r0, r5
	sub	sp, r11, #16
	pop	{r4, r5, r6, r10, r11, pc}
.Ltmp30:
.Lfunc_end0:
	.size	setup, .Lfunc_end0-setup
	.cfi_endproc
	.fnend

	.globl	render
	.p2align	3
	.type	render,%function
render:                                 @ @render
.Lfunc_begin1:
	.loc	2 165 0                 @ /root/Bela/projects/assignment2_part1/render.cpp:165:0
	.fnstart
	.cfi_startproc
@ BB#0:
	.save	{r4, r5, r6, r7, r8, r9, r10, r11, lr}
	push	{r4, r5, r6, r7, r8, r9, r10, r11, lr}
.Ltmp31:
	.cfi_def_cfa_offset 36
.Ltmp32:
	.cfi_offset lr, -4
.Ltmp33:
	.cfi_offset r11, -8
.Ltmp34:
	.cfi_offset r10, -12
.Ltmp35:
	.cfi_offset r9, -16
.Ltmp36:
	.cfi_offset r8, -20
.Ltmp37:
	.cfi_offset r7, -24
.Ltmp38:
	.cfi_offset r6, -28
.Ltmp39:
	.cfi_offset r5, -32
.Ltmp40:
	.cfi_offset r4, -36
	.setfp	r11, sp, #28
	add	r11, sp, #28
.Ltmp41:
	.cfi_def_cfa r11, 8
	.pad	#4
	sub	sp, sp, #4
	.vsave	{d8, d9, d10, d11}
	vpush	{d8, d9, d10, d11}
.Ltmp42:
	.cfi_offset d11, -48
.Ltmp43:
	.cfi_offset d10, -56
.Ltmp44:
	.cfi_offset d9, -64
.Ltmp45:
	.cfi_offset d8, -72
	.pad	#8
	sub	sp, sp, #8
	@DEBUG_VALUE: render:context <- %R0
	@DEBUG_VALUE: render:userData <- %R1
	mov	lr, r0
.Ltmp46:
	@DEBUG_VALUE: n <- 0
	@DEBUG_VALUE: render:context <- %LR
	.loc	2 167 39 prologue_end discriminator 1 @ /root/Bela/projects/assignment2_part1/render.cpp:167:39
	ldr	r0, [lr, #20]
	.loc	2 167 2 is_stmt 0 discriminator 1 @ /root/Bela/projects/assignment2_part1/render.cpp:167:2
	cmp	r0, #0
	beq	.LBB1_67
.Ltmp47:
@ BB#1:                                 @ %.lr.ph170
	@DEBUG_VALUE: render:context <- %LR
	@DEBUG_VALUE: render:userData <- %R1
	.loc	2 292 25 is_stmt 1 discriminator 1 @ /root/Bela/projects/assignment2_part1/render.cpp:292:25
	movw	r9, :lower16:.L_MergedGlobals
.Ltmp48:
	.loc	2 457 56                @ /root/Bela/projects/assignment2_part1/render.cpp:457:56
	movw	r8, :lower16:.L_MergedGlobals.6
.Ltmp49:
	.loc	2 455 14                @ /root/Bela/projects/assignment2_part1/render.cpp:455:14
	movw	r7, :lower16:gDrumSampleBuffers
	.loc	2 455 63 is_stmt 0      @ /root/Bela/projects/assignment2_part1/render.cpp:455:63
	movw	r5, :lower16:.L_MergedGlobals.5
.Ltmp50:
	.file	44 "./include" "Utilities.h"
	.loc	44 73 44 is_stmt 1      @ ./include/Utilities.h:73:44
	vldr	s16, .LCPI1_4
	mov	r12, #0
	.loc	44 73 64 is_stmt 0      @ ./include/Utilities.h:73:64
	vldr	s18, .LCPI1_5
.Ltmp51:
	.loc	2 292 25 is_stmt 1 discriminator 1 @ /root/Bela/projects/assignment2_part1/render.cpp:292:25
	movt	r9, :upper16:.L_MergedGlobals
.Ltmp52:
	.loc	2 351 28                @ /root/Bela/projects/assignment2_part1/render.cpp:351:28
	vldr	d10, .LCPI1_6
.Ltmp53:
	.loc	2 457 56                @ /root/Bela/projects/assignment2_part1/render.cpp:457:56
	movt	r8, :upper16:.L_MergedGlobals.6
.Ltmp54:
	.loc	2 311 52                @ /root/Bela/projects/assignment2_part1/render.cpp:311:52
	vldr	d11, .LCPI1_7
.Ltmp55:
	.loc	2 455 14                @ /root/Bela/projects/assignment2_part1/render.cpp:455:14
	movt	r7, :upper16:gDrumSampleBuffers
	.loc	2 455 63 is_stmt 0      @ /root/Bela/projects/assignment2_part1/render.cpp:455:63
	movt	r5, :upper16:.L_MergedGlobals.5
	mov	r4, #0
	mov	r10, #0
	str	lr, [sp]                @ 4-byte Spill
	b	.LBB1_5
.Ltmp56:
.LBB1_2:                                @   in Loop: Header=BB1_5 Depth=1
	@DEBUG_VALUE: z <- %S0
	@DEBUG_VALUE: y <- %S2
	@DEBUG_VALUE: x <- %S4
	.loc	2 382 22 is_stmt 1      @ /root/Bela/projects/assignment2_part1/render.cpp:382:22
	orrs	r2, r1, r0
	beq	.LBB1_4
.Ltmp57:
@ BB#3:                                 @   in Loop: Header=BB1_5 Depth=1
	@DEBUG_VALUE: z <- %S0
	@DEBUG_VALUE: y <- %S2
	@DEBUG_VALUE: x <- %S4
	mov	r2, #1
	mov	r3, #0
	b	.LBB1_29
.Ltmp58:
.LBB1_4:                                @   in Loop: Header=BB1_5 Depth=1
	@DEBUG_VALUE: z <- %S0
	@DEBUG_VALUE: y <- %S2
	@DEBUG_VALUE: x <- %S4
	mov	r3, #1
	mov	r2, #1
	.loc	2 383 23                @ /root/Bela/projects/assignment2_part1/render.cpp:383:23
	str	r3, [r9, #76]
	b	.LBB1_29
.Ltmp59:
.LBB1_5:                                @ =>This Loop Header: Depth=1
                                        @     Child Loop BB1_48 Depth 2
                                        @     Child Loop BB1_54 Depth 2
                                        @     Child Loop BB1_62 Depth 2
                                        @     Child Loop BB1_65 Depth 2
	@DEBUG_VALUE: out <- 0.000000e+00
	@DEBUG_VALUE: digitalRead:channel <- 1
	ldr	r0, [lr, #16]
.Ltmp60:
	.loc	2 292 25 discriminator 1 @ /root/Bela/projects/assignment2_part1/render.cpp:292:25
	ldr	r1, [r9, #40]
.Ltmp61:
	.loc	22 1325 12              @ ./include/Bela.h:1325:12
	ldr	r0, [r0, r10, lsl #2]
.Ltmp62:
	.loc	2 292 22                @ /root/Bela/projects/assignment2_part1/render.cpp:292:22
	cmp	r1, #0
.Ltmp63:
	.loc	22 1325 56              @ ./include/Bela.h:1325:56
	ubfx	r0, r0, #17, #1
.Ltmp64:
	@DEBUG_VALUE: status_b1 <- %R0
	beq	.LBB1_8
.Ltmp65:
@ BB#6:                                 @   in Loop: Header=BB1_5 Depth=1
	@DEBUG_VALUE: status_b1 <- %R0
	cmp	r0, #0
	bne	.LBB1_8
.Ltmp66:
@ BB#7:                                 @   in Loop: Header=BB1_5 Depth=1
	@DEBUG_VALUE: status_b1 <- %R0
	mov	r1, #1
.Ltmp67:
	.loc	2 294 20                @ /root/Bela/projects/assignment2_part1/render.cpp:294:20
	str	r1, [r9, #44]
	.loc	2 295 28                @ /root/Bela/projects/assignment2_part1/render.cpp:295:28
	ldr	r1, [r9, #4]
	.loc	2 295 27 is_stmt 0      @ /root/Bela/projects/assignment2_part1/render.cpp:295:27
	cmp	r1, #0
	mov	r1, #0
	movweq	r1, #1
	.loc	2 295 25                @ /root/Bela/projects/assignment2_part1/render.cpp:295:25
	str	r1, [r9, #4]
	.loc	2 296 28 is_stmt 1      @ /root/Bela/projects/assignment2_part1/render.cpp:296:28
	str	r12, [r9, #20]
	b	.LBB1_9
.Ltmp68:
.LBB1_8:                                @ %._crit_edge175
                                        @   in Loop: Header=BB1_5 Depth=1
	@DEBUG_VALUE: status_b1 <- %R0
	.loc	2 309 7                 @ /root/Bela/projects/assignment2_part1/render.cpp:309:7
	ldr	r1, [r9, #4]
.Ltmp69:
.LBB1_9:                                @   in Loop: Header=BB1_5 Depth=1
	@DEBUG_VALUE: status_b1 <- %R0
	.loc	2 300 25                @ /root/Bela/projects/assignment2_part1/render.cpp:300:25
	str	r0, [r9, #40]
	.loc	2 303 39                @ /root/Bela/projects/assignment2_part1/render.cpp:303:39
	lsr	r6, r10, #1
	ldr	r2, [lr, #40]
	.loc	2 309 7                 @ /root/Bela/projects/assignment2_part1/render.cpp:309:7
	cmp	r1, #0
	ldr	r0, [lr, #8]
.Ltmp70:
	.loc	22 1287 33              @ ./include/Bela.h:1287:33
	mul	r2, r2, r6
	.loc	22 1287 9 is_stmt 0     @ ./include/Bela.h:1287:9
	add	r2, r0, r2, lsl #2
	vldr	s0, [r2]
.Ltmp71:
	@DEBUG_VALUE: map:out_max <- 1.000000e+03
	@DEBUG_VALUE: map:out_min <- 5.000000e+01
	@DEBUG_VALUE: map:in_max <- 8.056641e-01
	@DEBUG_VALUE: map:in_min <- 0.000000e+00
	@DEBUG_VALUE: input <- %S0
	.loc	44 73 44 is_stmt 1      @ ./include/Utilities.h:73:44
	vmul.f32	d16, d0, d8
	.loc	44 73 64 is_stmt 0      @ ./include/Utilities.h:73:64
	vadd.f32	d16, d16, d9
.Ltmp72:
	.loc	2 306 33 is_stmt 1      @ /root/Bela/projects/assignment2_part1/render.cpp:306:33
	vcvt.s32.f32	d0, d16
.Ltmp73:
	vmov	r2, s0
	.loc	2 306 31 is_stmt 0      @ /root/Bela/projects/assignment2_part1/render.cpp:306:31
	str	r2, [r9, #16]
	beq	.LBB1_18
@ BB#10:                                @   in Loop: Header=BB1_5 Depth=1
.Ltmp74:
	.loc	2 311 25 is_stmt 1      @ /root/Bela/projects/assignment2_part1/render.cpp:311:25
	vcvt.f64.s32	d16, s0
	.loc	2 311 8 is_stmt 0       @ /root/Bela/projects/assignment2_part1/render.cpp:311:8
	ldr	r1, [r9, #20]
	.loc	2 311 52                @ /root/Bela/projects/assignment2_part1/render.cpp:311:52
	vmul.f64	d16, d16, d11
	.loc	2 311 71                @ /root/Bela/projects/assignment2_part1/render.cpp:311:71
	vldr	s0, [lr, #32]
	.loc	2 311 62                @ /root/Bela/projects/assignment2_part1/render.cpp:311:62
	vcvt.f64.f32	d17, s0
	.loc	2 311 60                @ /root/Bela/projects/assignment2_part1/render.cpp:311:60
	vmul.f64	d16, d16, d17
	.loc	2 311 8                 @ /root/Bela/projects/assignment2_part1/render.cpp:311:8
	vmov	s0, r1
	vcvt.f64.s32	d17, s0
.Ltmp75:
	.loc	2 311 8                 @ /root/Bela/projects/assignment2_part1/render.cpp:311:8
	vcmpe.f64	d17, d16
	vmrs	APSR_nzcv, fpscr
	bge	.LBB1_16
@ BB#11:                                @ %._crit_edge176
                                        @   in Loop: Header=BB1_5 Depth=1
	.loc	2 323 52 is_stmt 1      @ /root/Bela/projects/assignment2_part1/render.cpp:323:52
	ldrb	r0, [r9]
	b	.LBB1_17
	.p2align	2
@ BB#12:
.LCPI1_4:
	.long	1150510297              @ float 1179.15149
	.p2align	2
@ BB#13:
.LCPI1_5:
	.long	1112014848              @ float 50
	.p2align	3
@ BB#14:
.LCPI1_6:
	.long	2576980378              @ double 0.050000000000000003
	.long	1068079513
	.p2align	3
@ BB#15:
.LCPI1_7:
	.long	3539053052              @ double 0.001
	.long	1062232653
.LBB1_16:                               @   in Loop: Header=BB1_5 Depth=1
.Ltmp76:
	.loc	2 313 19                @ /root/Bela/projects/assignment2_part1/render.cpp:313:19
	bl	_Z14startNextEventv
	mov	r12, #0
	ldr	lr, [sp]                @ 4-byte Reload
	.loc	2 314 33                @ /root/Bela/projects/assignment2_part1/render.cpp:314:33
	str	r12, [r9, #20]
.Ltmp77:
	.loc	2 455 14                @ /root/Bela/projects/assignment2_part1/render.cpp:455:14
	movw	r7, :lower16:gDrumSampleBuffers
.Ltmp78:
	.loc	2 315 22                @ /root/Bela/projects/assignment2_part1/render.cpp:315:22
	ldrb	r0, [r9]
.Ltmp79:
	.loc	2 321 27                @ /root/Bela/projects/assignment2_part1/render.cpp:321:27
	mov	r1, #0
.Ltmp80:
	.loc	2 455 14                @ /root/Bela/projects/assignment2_part1/render.cpp:455:14
	movt	r7, :upper16:gDrumSampleBuffers
.Ltmp81:
	.loc	2 315 22                @ /root/Bela/projects/assignment2_part1/render.cpp:315:22
	cmp	r0, #0
	movne	r0, #0
	moveq	r0, #1
.Ltmp82:
	.loc	2 318 28                @ /root/Bela/projects/assignment2_part1/render.cpp:318:28
	strb	r0, [r9]
.Ltmp83:
.LBB1_17:                               @   in Loop: Header=BB1_5 Depth=1
	.loc	2 321 27                @ /root/Bela/projects/assignment2_part1/render.cpp:321:27
	add	r1, r1, #1
	str	r1, [r9, #20]
	ldr	r1, [lr, #16]
.Ltmp84:
	.loc	22 1345 5               @ ./include/Bela.h:1345:5
	cmp	r0, #0
.Ltmp85:
	.loc	22 1348 27              @ ./include/Bela.h:1348:27
	ldr	r2, [r1, r10, lsl #2]
.Ltmp86:
	@DEBUG_VALUE: digitalWriteOnce:channel <- 0
	mov	r3, r2
	bfc	r3, #16, #1
.Ltmp87:
	.loc	22 1345 5               @ ./include/Bela.h:1345:5
	orrne	r3, r2, #65536
.Ltmp88:
	.loc	22 1348 27              @ ./include/Bela.h:1348:27
	str	r3, [r1, r10, lsl #2]
	ldr	r0, [lr, #8]
.Ltmp89:
.LBB1_18:                               @   in Loop: Header=BB1_5 Depth=1
	str	r4, [sp, #4]            @ 4-byte Spill
	.loc	2 330 37                @ /root/Bela/projects/assignment2_part1/render.cpp:330:37
	add	r4, r9, #48
	ldr	r1, [lr, #40]
	ldm	r4, {r2, r3, r4}
.Ltmp90:
	.loc	22 1287 61              @ ./include/Bela.h:1287:61
	mla	r3, r1, r6, r3
.Ltmp91:
	.loc	2 330 46                @ /root/Bela/projects/assignment2_part1/render.cpp:330:46
	vldr	s4, [r9, #60]
.Ltmp92:
	.loc	22 1287 61              @ ./include/Bela.h:1287:61
	mla	r2, r1, r6, r2
.Ltmp93:
	.loc	22 1287 61 is_stmt 0    @ ./include/Bela.h:1287:61
	mla	r1, r1, r6, r4
.Ltmp94:
	@DEBUG_VALUE: z_state <- 0
	@DEBUG_VALUE: y_state <- 0
	@DEBUG_VALUE: x_state <- 0
	.loc	2 351 19 is_stmt 1      @ /root/Bela/projects/assignment2_part1/render.cpp:351:19
	movw	r6, :lower16:_ZZ6renderE12printCounter
	movt	r6, :upper16:_ZZ6renderE12printCounter
	mov	r4, r6
.Ltmp95:
	.loc	22 1287 9               @ ./include/Bela.h:1287:9
	add	r3, r0, r3, lsl #2
.Ltmp96:
	.loc	2 351 19                @ /root/Bela/projects/assignment2_part1/render.cpp:351:19
	ldr	r6, [r4]
.Ltmp97:
	.loc	22 1287 9               @ ./include/Bela.h:1287:9
	add	r2, r0, r2, lsl #2
.Ltmp98:
	.loc	22 1287 9 is_stmt 0     @ ./include/Bela.h:1287:9
	vldr	s2, [r3]
.Ltmp99:
	.loc	22 1287 9               @ ./include/Bela.h:1287:9
	add	r0, r0, r1, lsl #2
.Ltmp100:
	.loc	22 1287 9               @ ./include/Bela.h:1287:9
	vldr	s6, [r2]
.Ltmp101:
	.loc	22 1287 9               @ ./include/Bela.h:1287:9
	vldr	s0, [r0]
.Ltmp102:
	.loc	2 351 19 is_stmt 1      @ /root/Bela/projects/assignment2_part1/render.cpp:351:19
	add	r0, r6, #1
	str	r0, [r4]
	.loc	2 351 38 is_stmt 0      @ /root/Bela/projects/assignment2_part1/render.cpp:351:38
	vldr	s8, [lr, #32]
	.loc	2 351 29                @ /root/Bela/projects/assignment2_part1/render.cpp:351:29
	vcvt.f64.f32	d16, s8
	.loc	2 351 28                @ /root/Bela/projects/assignment2_part1/render.cpp:351:28
	vmul.f64	d16, d16, d10
	.loc	2 351 7                 @ /root/Bela/projects/assignment2_part1/render.cpp:351:7
	vmov	s8, r6
	vcvt.f64.s32	d17, s8
.Ltmp103:
	.loc	2 351 7                 @ /root/Bela/projects/assignment2_part1/render.cpp:351:7
	vcmpe.f64	d17, d16
	vmrs	APSR_nzcv, fpscr
	ble	.LBB1_43
@ BB#19:                                @   in Loop: Header=BB1_5 Depth=1
	.loc	2 332 44 is_stmt 1      @ /root/Bela/projects/assignment2_part1/render.cpp:332:44
	vsub.f32	d0, d0, d2
.Ltmp104:
	.loc	2 372 33 discriminator 1 @ /root/Bela/projects/assignment2_part1/render.cpp:372:33
	vldr	s8, [r9, #64]
.Ltmp105:
	.loc	2 331 44                @ /root/Bela/projects/assignment2_part1/render.cpp:331:44
	vsub.f32	d1, d1, d2
.Ltmp106:
	.loc	2 351 19                @ /root/Bela/projects/assignment2_part1/render.cpp:351:19
	movw	r1, :lower16:_ZZ6renderE12printCounter
.Ltmp107:
	.loc	2 330 44                @ /root/Bela/projects/assignment2_part1/render.cpp:330:44
	vsub.f32	d2, d3, d2
.Ltmp108:
	@DEBUG_VALUE: x <- %S4
	@DEBUG_VALUE: y <- %S2
	.loc	2 372 8                 @ /root/Bela/projects/assignment2_part1/render.cpp:372:8
	vldr	s6, [r9, #68]
	mov	r0, #0
.Ltmp109:
	.loc	2 351 19                @ /root/Bela/projects/assignment2_part1/render.cpp:351:19
	movt	r1, :upper16:_ZZ6renderE12printCounter
.Ltmp110:
	.loc	2 353 18                @ /root/Bela/projects/assignment2_part1/render.cpp:353:18
	str	r0, [r1]
.Ltmp111:
	.loc	2 356 26                @ /root/Bela/projects/assignment2_part1/render.cpp:356:26
	vcmpe.f32	s6, s4
	vmrs	APSR_nzcv, fpscr
	vcmpelt.f32	s4, s8
	vmrslt	APSR_nzcv, fpscr
	blt	.LBB1_22
.Ltmp112:
@ BB#20:                                @   in Loop: Header=BB1_5 Depth=1
	@DEBUG_VALUE: y <- %S2
	@DEBUG_VALUE: x <- %S4
	mov	r0, #1
	.loc	2 358 13                @ /root/Bela/projects/assignment2_part1/render.cpp:358:13
	vcmpe.f32	s4, s8
	vmrs	APSR_nzcv, fpscr
	bge	.LBB1_22
.Ltmp113:
@ BB#21:                                @   in Loop: Header=BB1_5 Depth=1
	@DEBUG_VALUE: y <- %S2
	@DEBUG_VALUE: x <- %S4
	.loc	2 360 13                @ /root/Bela/projects/assignment2_part1/render.cpp:360:13
	vcmpe.f32	s4, s6
	mov	r0, #0
	vmrs	APSR_nzcv, fpscr
	mvnle	r0, #0
.Ltmp114:
	@DEBUG_VALUE: x_state <- -1
.LBB1_22:                               @   in Loop: Header=BB1_5 Depth=1
	@DEBUG_VALUE: y <- %S2
	@DEBUG_VALUE: x <- %S4
	@DEBUG_VALUE: z <- %S0
	.loc	2 364 26                @ /root/Bela/projects/assignment2_part1/render.cpp:364:26
	vcmpe.f32	s6, s2
	mov	r1, #0
	vmrs	APSR_nzcv, fpscr
	vcmpelt.f32	s2, s8
	vmrslt	APSR_nzcv, fpscr
	blt	.LBB1_25
.Ltmp115:
@ BB#23:                                @   in Loop: Header=BB1_5 Depth=1
	@DEBUG_VALUE: z <- %S0
	@DEBUG_VALUE: y <- %S2
	@DEBUG_VALUE: x <- %S4
	mov	r1, #1
	.loc	2 366 13                @ /root/Bela/projects/assignment2_part1/render.cpp:366:13
	vcmpe.f32	s2, s8
	vmrs	APSR_nzcv, fpscr
	bge	.LBB1_25
.Ltmp116:
@ BB#24:                                @   in Loop: Header=BB1_5 Depth=1
	@DEBUG_VALUE: z <- %S0
	@DEBUG_VALUE: y <- %S2
	@DEBUG_VALUE: x <- %S4
	.loc	2 368 13                @ /root/Bela/projects/assignment2_part1/render.cpp:368:13
	vcmpe.f32	s2, s6
	mov	r1, #0
	vmrs	APSR_nzcv, fpscr
	mvnle	r1, #0
.Ltmp117:
	@DEBUG_VALUE: y_state <- -1
.LBB1_25:                               @   in Loop: Header=BB1_5 Depth=1
	@DEBUG_VALUE: z <- %S0
	@DEBUG_VALUE: y <- %S2
	@DEBUG_VALUE: x <- %S4
	.loc	2 372 26                @ /root/Bela/projects/assignment2_part1/render.cpp:372:26
	vcmpe.f32	s6, s0
	mov	r2, #0
	vmrs	APSR_nzcv, fpscr
	vcmpelt.f32	s0, s8
	vmrslt	APSR_nzcv, fpscr
	blt	.LBB1_28
.Ltmp118:
@ BB#26:                                @   in Loop: Header=BB1_5 Depth=1
	@DEBUG_VALUE: z <- %S0
	@DEBUG_VALUE: y <- %S2
	@DEBUG_VALUE: x <- %S4
	.loc	2 374 13                @ /root/Bela/projects/assignment2_part1/render.cpp:374:13
	vcmpe.f32	s0, s8
	vmrs	APSR_nzcv, fpscr
	bge	.LBB1_2
.Ltmp119:
@ BB#27:                                @   in Loop: Header=BB1_5 Depth=1
	@DEBUG_VALUE: z <- %S0
	@DEBUG_VALUE: y <- %S2
	@DEBUG_VALUE: x <- %S4
	.loc	2 376 13                @ /root/Bela/projects/assignment2_part1/render.cpp:376:13
	vcmpe.f32	s0, s6
	vmrs	APSR_nzcv, fpscr
	mvnle	r2, #0
.Ltmp120:
	@DEBUG_VALUE: z_state <- -1
.LBB1_28:                               @ %.thread
                                        @   in Loop: Header=BB1_5 Depth=1
	@DEBUG_VALUE: z <- %S0
	@DEBUG_VALUE: y <- %S2
	@DEBUG_VALUE: x <- %S4
	.loc	2 382 22                @ /root/Bela/projects/assignment2_part1/render.cpp:382:22
	orrs	r3, r1, r0
	mov	r3, #0
	movweq	r3, #1
.Ltmp121:
.LBB1_29:                               @   in Loop: Header=BB1_5 Depth=1
	@DEBUG_VALUE: z <- %S0
	@DEBUG_VALUE: y <- %S2
	@DEBUG_VALUE: x <- %S4
	.loc	2 387 23                @ /root/Bela/projects/assignment2_part1/render.cpp:387:23
	orr	r6, r2, r1
.Ltmp122:
	.loc	2 384 22                @ /root/Bela/projects/assignment2_part1/render.cpp:384:22
	str	r12, [r9, #24]
.Ltmp123:
	.loc	2 387 23                @ /root/Bela/projects/assignment2_part1/render.cpp:387:23
	cmn	r0, #1
	bne	.LBB1_31
.Ltmp124:
@ BB#30:                                @   in Loop: Header=BB1_5 Depth=1
	@DEBUG_VALUE: z <- %S0
	@DEBUG_VALUE: y <- %S2
	@DEBUG_VALUE: x <- %S4
	cmp	r6, #0
.Ltmp125:
	.loc	2 388 23                @ /root/Bela/projects/assignment2_part1/render.cpp:388:23
	moveq	r4, #2
	streq	r4, [r9, #76]
	.loc	2 389 22                @ /root/Bela/projects/assignment2_part1/render.cpp:389:22
	streq	r12, [r9, #24]
.Ltmp126:
.LBB1_31:                               @   in Loop: Header=BB1_5 Depth=1
	@DEBUG_VALUE: z <- %S0
	@DEBUG_VALUE: y <- %S2
	@DEBUG_VALUE: x <- %S4
	.loc	2 392 22                @ /root/Bela/projects/assignment2_part1/render.cpp:392:22
	cmp	r0, #1
	bne	.LBB1_33
.Ltmp127:
@ BB#32:                                @   in Loop: Header=BB1_5 Depth=1
	@DEBUG_VALUE: z <- %S0
	@DEBUG_VALUE: y <- %S2
	@DEBUG_VALUE: x <- %S4
	cmp	r6, #0
.Ltmp128:
	.loc	2 393 23                @ /root/Bela/projects/assignment2_part1/render.cpp:393:23
	moveq	r6, #3
	streq	r6, [r9, #76]
	.loc	2 394 22                @ /root/Bela/projects/assignment2_part1/render.cpp:394:22
	streq	r12, [r9, #24]
.Ltmp129:
.LBB1_33:                               @   in Loop: Header=BB1_5 Depth=1
	@DEBUG_VALUE: z <- %S0
	@DEBUG_VALUE: y <- %S2
	@DEBUG_VALUE: x <- %S4
	.loc	2 397 22                @ /root/Bela/projects/assignment2_part1/render.cpp:397:22
	orr	r0, r2, r0
	cmn	r1, #1
	bne	.LBB1_35
.Ltmp130:
@ BB#34:                                @   in Loop: Header=BB1_5 Depth=1
	@DEBUG_VALUE: z <- %S0
	@DEBUG_VALUE: y <- %S2
	@DEBUG_VALUE: x <- %S4
	cmp	r0, #0
.Ltmp131:
	.loc	2 398 23                @ /root/Bela/projects/assignment2_part1/render.cpp:398:23
	moveq	r6, #4
	streq	r6, [r9, #76]
	.loc	2 399 22                @ /root/Bela/projects/assignment2_part1/render.cpp:399:22
	streq	r12, [r9, #24]
.Ltmp132:
.LBB1_35:                               @   in Loop: Header=BB1_5 Depth=1
	@DEBUG_VALUE: z <- %S0
	@DEBUG_VALUE: y <- %S2
	@DEBUG_VALUE: x <- %S4
	.loc	2 402 22                @ /root/Bela/projects/assignment2_part1/render.cpp:402:22
	cmp	r1, #1
	bne	.LBB1_37
.Ltmp133:
@ BB#36:                                @   in Loop: Header=BB1_5 Depth=1
	@DEBUG_VALUE: z <- %S0
	@DEBUG_VALUE: y <- %S2
	@DEBUG_VALUE: x <- %S4
	cmp	r0, #0
.Ltmp134:
	.loc	2 403 23                @ /root/Bela/projects/assignment2_part1/render.cpp:403:23
	moveq	r0, #5
	streq	r0, [r9, #76]
	.loc	2 404 22                @ /root/Bela/projects/assignment2_part1/render.cpp:404:22
	streq	r12, [r9, #24]
.Ltmp135:
.LBB1_37:                               @   in Loop: Header=BB1_5 Depth=1
	@DEBUG_VALUE: z <- %S0
	@DEBUG_VALUE: y <- %S2
	@DEBUG_VALUE: x <- %S4
	.loc	2 415 54                @ /root/Bela/projects/assignment2_part1/render.cpp:415:54
	vcvt.f64.f32	d16, s4
.Ltmp136:
	.loc	2 407 48 discriminator 2 @ /root/Bela/projects/assignment2_part1/render.cpp:407:48
	cmn	r2, #1
	mov	r0, #0
	movweq	r0, #1
	.loc	2 407 22 is_stmt 0      @ /root/Bela/projects/assignment2_part1/render.cpp:407:22
	and	r0, r3, r0
	cmp	r0, #1
.Ltmp137:
	.loc	2 415 50 is_stmt 1 discriminator 1 @ /root/Bela/projects/assignment2_part1/render.cpp:415:50
	vmul.f64	d16, d16, d16
	moveq	r0, #1
.Ltmp138:
	.loc	2 408 23                @ /root/Bela/projects/assignment2_part1/render.cpp:408:23
	streq	r12, [r9, #76]
	.loc	2 409 22                @ /root/Bela/projects/assignment2_part1/render.cpp:409:22
	streq	r0, [r9, #24]
.Ltmp139:
	.loc	1 85 20                 @ ./libraries/Biquad/Biquad.h:85:20
	movw	r0, :lower16:.L_MergedGlobals.8
	movt	r0, :upper16:.L_MergedGlobals.8
	add	r1, r0, #8
.Ltmp140:
	.loc	2 415 45 discriminator 2 @ /root/Bela/projects/assignment2_part1/render.cpp:415:45
	vsqrt.f64	d16, d16
	.loc	2 415 45 is_stmt 0      @ /root/Bela/projects/assignment2_part1/render.cpp:415:45
	vcvt.f32.f64	s4, d16
.Ltmp141:
	.loc	2 416 54 is_stmt 1      @ /root/Bela/projects/assignment2_part1/render.cpp:416:54
	vcvt.f64.f32	d16, s2
.Ltmp142:
	@DEBUG_VALUE: process:in <- %S4
	.loc	2 416 50 is_stmt 0 discriminator 1 @ /root/Bela/projects/assignment2_part1/render.cpp:416:50
	vmul.f64	d16, d16, d16
	.loc	2 416 45 discriminator 2 @ /root/Bela/projects/assignment2_part1/render.cpp:416:45
	vsqrt.f64	d23, d16
.Ltmp143:
	.loc	1 85 15 is_stmt 1       @ ./libraries/Biquad/Biquad.h:85:15
	vcvt.f64.f32	d17, s4
	.loc	1 85 20 is_stmt 0       @ ./libraries/Biquad/Biquad.h:85:20
	vldmia	r1, {d18, d19, d20, d21}
	.loc	1 85 18                 @ ./libraries/Biquad/Biquad.h:85:18
	vmul.f64	d22, d18, d17
	.loc	1 85 25                 @ ./libraries/Biquad/Biquad.h:85:25
	vldr	d16, [r0, #104]
	.loc	1 86 17 is_stmt 1       @ ./libraries/Biquad/Biquad.h:86:17
	vldr	d24, [r0, #112]
	.loc	1 85 23                 @ ./libraries/Biquad/Biquad.h:85:23
	vadd.f64	d16, d22, d16
.Ltmp144:
	@DEBUG_VALUE: process:out <- %D16
	.loc	1 86 10                 @ ./libraries/Biquad/Biquad.h:86:10
	vmul.f64	d22, d19, d17
.Ltmp145:
	.loc	2 416 45                @ /root/Bela/projects/assignment2_part1/render.cpp:416:45
	vcvt.f32.f64	s2, d23
.Ltmp146:
	.loc	1 86 25                 @ ./libraries/Biquad/Biquad.h:86:25
	vmul.f64	d23, d21, d16
	.loc	1 86 15 is_stmt 0       @ ./libraries/Biquad/Biquad.h:86:15
	vadd.f64	d22, d22, d24
	.loc	1 87 17 is_stmt 1       @ ./libraries/Biquad/Biquad.h:87:17
	vldr	d25, [r0, #40]
	.loc	1 86 20                 @ ./libraries/Biquad/Biquad.h:86:20
	vsub.f64	d22, d22, d23
	.loc	1 87 10                 @ ./libraries/Biquad/Biquad.h:87:10
	vmul.f64	d17, d20, d17
.Ltmp147:
	@DEBUG_VALUE: process:in <- %S2
	.loc	1 87 20 is_stmt 0       @ ./libraries/Biquad/Biquad.h:87:20
	vmul.f64	d23, d25, d16
.Ltmp148:
	.loc	1 85 15 is_stmt 1       @ ./libraries/Biquad/Biquad.h:85:15
	vcvt.f64.f32	d24, s2
.Ltmp149:
	.loc	1 87 15                 @ ./libraries/Biquad/Biquad.h:87:15
	vsub.f64	d23, d17, d23
.Ltmp150:
	.loc	1 85 18                 @ ./libraries/Biquad/Biquad.h:85:18
	vmul.f64	d17, d18, d24
	.loc	1 85 23 is_stmt 0       @ ./libraries/Biquad/Biquad.h:85:23
	vadd.f64	d17, d17, d22
.Ltmp151:
	@DEBUG_VALUE: process:out <- %D17
	.loc	1 86 10 is_stmt 1       @ ./libraries/Biquad/Biquad.h:86:10
	vmul.f64	d22, d19, d24
	.loc	1 86 15 is_stmt 0       @ ./libraries/Biquad/Biquad.h:86:15
	vadd.f64	d22, d22, d23
	.loc	1 86 25                 @ ./libraries/Biquad/Biquad.h:86:25
	vmul.f64	d23, d21, d17
	.loc	1 86 20                 @ ./libraries/Biquad/Biquad.h:86:20
	vsub.f64	d22, d22, d23
	.loc	1 87 10 is_stmt 1       @ ./libraries/Biquad/Biquad.h:87:10
	vmul.f64	d23, d20, d24
.Ltmp152:
	.loc	2 417 54                @ /root/Bela/projects/assignment2_part1/render.cpp:417:54
	vcvt.f64.f32	d24, s0
	.loc	2 417 50 is_stmt 0 discriminator 1 @ /root/Bela/projects/assignment2_part1/render.cpp:417:50
	vmul.f64	d24, d24, d24
	.loc	2 417 45 discriminator 2 @ /root/Bela/projects/assignment2_part1/render.cpp:417:45
	vsqrt.f64	d24, d24
	.loc	2 417 45                @ /root/Bela/projects/assignment2_part1/render.cpp:417:45
	vcvt.f32.f64	s0, d24
.Ltmp153:
	@DEBUG_VALUE: process:in <- %S0
	.loc	1 85 15 is_stmt 1       @ ./libraries/Biquad/Biquad.h:85:15
	vcvt.f64.f32	d24, s0
	.loc	1 85 18 is_stmt 0       @ ./libraries/Biquad/Biquad.h:85:18
	vmul.f64	d18, d18, d24
	.loc	1 85 23                 @ ./libraries/Biquad/Biquad.h:85:23
	vadd.f64	d18, d18, d22
.Ltmp154:
	@DEBUG_VALUE: process:out <- %D18
	.loc	1 87 20 is_stmt 1       @ ./libraries/Biquad/Biquad.h:87:20
	vmul.f64	d22, d25, d17
.Ltmp155:
	.loc	1 86 10                 @ ./libraries/Biquad/Biquad.h:86:10
	vmul.f64	d19, d19, d24
.Ltmp156:
	.loc	1 87 15                 @ ./libraries/Biquad/Biquad.h:87:15
	vsub.f64	d22, d23, d22
.Ltmp157:
	.loc	1 86 15                 @ ./libraries/Biquad/Biquad.h:86:15
	vadd.f64	d19, d19, d22
	.loc	1 86 25 is_stmt 0       @ ./libraries/Biquad/Biquad.h:86:25
	vmul.f64	d21, d21, d18
	.loc	1 87 10 is_stmt 1       @ ./libraries/Biquad/Biquad.h:87:10
	vmul.f64	d20, d20, d24
	.loc	1 87 20 is_stmt 0       @ ./libraries/Biquad/Biquad.h:87:20
	vmul.f64	d22, d25, d18
	.loc	1 86 20 is_stmt 1       @ ./libraries/Biquad/Biquad.h:86:20
	vsub.f64	d19, d19, d21
	.loc	1 87 15                 @ ./libraries/Biquad/Biquad.h:87:15
	vsub.f64	d20, d20, d22
	.loc	1 88 9                  @ ./libraries/Biquad/Biquad.h:88:9
	vcvt.f32.f64	s2, d18
.Ltmp158:
	@DEBUG_VALUE: z_afterhighpass <- %S2
	.loc	2 422 26                @ /root/Bela/projects/assignment2_part1/render.cpp:422:26
	vldr	s0, [r9, #72]
.Ltmp159:
	.loc	1 86 5                  @ ./libraries/Biquad/Biquad.h:86:5
	vstr	d19, [r0, #104]
.Ltmp160:
	.loc	2 422 42                @ /root/Bela/projects/assignment2_part1/render.cpp:422:42
	vcmpe.f32	s2, s0
.Ltmp161:
	.loc	1 87 5                  @ ./libraries/Biquad/Biquad.h:87:5
	vstr	d20, [r0, #112]
.Ltmp162:
	.loc	2 422 42                @ /root/Bela/projects/assignment2_part1/render.cpp:422:42
	vmrs	APSR_nzcv, fpscr
	bgt	.LBB1_41
.Ltmp163:
@ BB#38:                                @   in Loop: Header=BB1_5 Depth=1
	@DEBUG_VALUE: z_afterhighpass <- %S2
	@DEBUG_VALUE: process:out <- %D18
	@DEBUG_VALUE: process:out <- %D17
	@DEBUG_VALUE: process:out <- %D16
	@DEBUG_VALUE: process:in <- %S4
	.loc	1 88 9                  @ ./libraries/Biquad/Biquad.h:88:9
	vcvt.f32.f64	s2, d16
.Ltmp164:
	@DEBUG_VALUE: x_afterhighpass <- %S2
	vcmpe.f32	s2, s0
	vmrs	APSR_nzcv, fpscr
	bgt	.LBB1_41
.Ltmp165:
@ BB#39:                                @   in Loop: Header=BB1_5 Depth=1
	@DEBUG_VALUE: x_afterhighpass <- %S2
	@DEBUG_VALUE: process:out <- %D18
	@DEBUG_VALUE: process:out <- %D17
	@DEBUG_VALUE: process:out <- %D16
	@DEBUG_VALUE: process:in <- %S4
	.loc	1 88 9 is_stmt 0        @ ./libraries/Biquad/Biquad.h:88:9
	vcvt.f32.f64	s2, d17
.Ltmp166:
	@DEBUG_VALUE: y_afterhighpass <- %S2
	vcmpe.f32	s2, s0
	vmrs	APSR_nzcv, fpscr
	bgt	.LBB1_41
.Ltmp167:
@ BB#40:                                @ %._crit_edge179
                                        @   in Loop: Header=BB1_5 Depth=1
	@DEBUG_VALUE: y_afterhighpass <- %S2
	@DEBUG_VALUE: process:out <- %D18
	@DEBUG_VALUE: process:out <- %D17
	@DEBUG_VALUE: process:out <- %D16
	@DEBUG_VALUE: process:in <- %S4
	.loc	2 430 59 is_stmt 1      @ /root/Bela/projects/assignment2_part1/render.cpp:430:59
	ldr	r1, [r9, #8]
	.loc	2 430 76 is_stmt 0      @ /root/Bela/projects/assignment2_part1/render.cpp:430:76
	ldr	r2, [r9, #28]
	b	.LBB1_42
.Ltmp168:
.LBB1_41:                               @   in Loop: Header=BB1_5 Depth=1
	@DEBUG_VALUE: process:out <- %D18
	@DEBUG_VALUE: process:out <- %D17
	@DEBUG_VALUE: process:out <- %D16
	@DEBUG_VALUE: process:in <- %S4
	mov	r0, #1
	mov	r2, #1
.Ltmp169:
	.loc	2 423 21 is_stmt 1      @ /root/Bela/projects/assignment2_part1/render.cpp:423:21
	str	r0, [r9, #28]
.Ltmp170:
	.loc	2 424 9                 @ /root/Bela/projects/assignment2_part1/render.cpp:424:9
	ldr	r1, [r9, #8]
	.loc	2 424 28 is_stmt 0      @ /root/Bela/projects/assignment2_part1/render.cpp:424:28
	ldr	r0, [r9, #36]
.Ltmp171:
	.loc	2 424 9                 @ /root/Bela/projects/assignment2_part1/render.cpp:424:9
	cmp	r1, r0
.Ltmp172:
	.loc	2 425 35 is_stmt 1      @ /root/Bela/projects/assignment2_part1/render.cpp:425:35
	strne	r1, [r9, #32]
.Ltmp173:
	.loc	2 426 29                @ /root/Bela/projects/assignment2_part1/render.cpp:426:29
	str	r12, [r9, #12]
.Ltmp174:
.LBB1_42:                               @   in Loop: Header=BB1_5 Depth=1
	@DEBUG_VALUE: process:out <- %D18
	@DEBUG_VALUE: process:out <- %D17
	@DEBUG_VALUE: process:out <- %D16
	@DEBUG_VALUE: process:in <- %S4
	.loc	2 430 4                 @ /root/Bela/projects/assignment2_part1/render.cpp:430:4
	movw	r0, :lower16:.L.str.3
	movt	r0, :upper16:.L.str.3
	bl	rt_printf
.Ltmp175:
	ldr	lr, [sp]                @ 4-byte Reload
.Ltmp176:
	.loc	2 455 14                @ /root/Bela/projects/assignment2_part1/render.cpp:455:14
	movw	r7, :lower16:gDrumSampleBuffers
	mov	r12, #0
	movt	r7, :upper16:gDrumSampleBuffers
.Ltmp177:
.LBB1_43:                               @   in Loop: Header=BB1_5 Depth=1
	.loc	2 437 8                 @ /root/Bela/projects/assignment2_part1/render.cpp:437:8
	ldr	r0, [r9, #28]
.Ltmp178:
	.loc	2 437 8 is_stmt 0       @ /root/Bela/projects/assignment2_part1/render.cpp:437:8
	cmp	r0, #0
	beq	.LBB1_45
@ BB#44:                                @   in Loop: Header=BB1_5 Depth=1
	cmp	r0, #1
.Ltmp179:
	.loc	2 457 31 is_stmt 1      @ /root/Bela/projects/assignment2_part1/render.cpp:457:31
	movw	r4, :lower16:gDrumSampleBufferLengths
.Ltmp180:
	.loc	2 438 23                @ /root/Bela/projects/assignment2_part1/render.cpp:438:23
	ldreq	r0, [r9, #36]
.Ltmp181:
	.loc	2 457 31                @ /root/Bela/projects/assignment2_part1/render.cpp:457:31
	movt	r4, :upper16:gDrumSampleBufferLengths
.Ltmp182:
	.loc	2 438 21                @ /root/Bela/projects/assignment2_part1/render.cpp:438:21
	streq	r0, [r9, #8]
	b	.LBB1_46
.Ltmp183:
.LBB1_45:                               @   in Loop: Header=BB1_5 Depth=1
	.loc	2 457 31                @ /root/Bela/projects/assignment2_part1/render.cpp:457:31
	movw	r4, :lower16:gDrumSampleBufferLengths
.Ltmp184:
	.loc	2 441 23                @ /root/Bela/projects/assignment2_part1/render.cpp:441:23
	ldr	r0, [r9, #76]
.Ltmp185:
	.loc	2 457 31                @ /root/Bela/projects/assignment2_part1/render.cpp:457:31
	movt	r4, :upper16:gDrumSampleBufferLengths
.Ltmp186:
	.loc	2 441 21                @ /root/Bela/projects/assignment2_part1/render.cpp:441:21
	str	r0, [r9, #8]
.Ltmp187:
.LBB1_46:                               @ %.preheader164
                                        @   in Loop: Header=BB1_5 Depth=1
	.loc	2 453 10                @ /root/Bela/projects/assignment2_part1/render.cpp:453:10
	ldr	r0, [r9, #24]
	vmov.i32	d0, #0x0
.Ltmp188:
	.loc	2 453 10 is_stmt 0      @ /root/Bela/projects/assignment2_part1/render.cpp:453:10
	cmp	r0, #0
	beq	.LBB1_53
@ BB#47:                                @ %.preheader164.split.preheader
                                        @   in Loop: Header=BB1_5 Depth=1
	mov	r1, #0
.LBB1_48:                               @ %.preheader164.split
                                        @   Parent Loop BB1_5 Depth=1
                                        @ =>  This Inner Loop Header: Depth=2
.Ltmp189:
	.loc	2 472 53 is_stmt 1      @ /root/Bela/projects/assignment2_part1/render.cpp:472:53
	ldr	r2, [r8, r1, lsl #2]
.Ltmp190:
	.loc	2 451 8                 @ /root/Bela/projects/assignment2_part1/render.cpp:451:8
	cmp	r2, #0
	blt	.LBB1_52
@ BB#49:                                @ %.preheader164.split
                                        @   in Loop: Header=BB1_48 Depth=2
	cmp	r0, #1
	bne	.LBB1_52
@ BB#50:                                @   in Loop: Header=BB1_48 Depth=2
.Ltmp191:
	.loc	2 468 63                @ /root/Bela/projects/assignment2_part1/render.cpp:468:63
	ldr	r3, [r5, r1, lsl #2]
	.loc	2 468 14 is_stmt 0      @ /root/Bela/projects/assignment2_part1/render.cpp:468:14
	ldr	r6, [r7, r2, lsl #2]
	.loc	2 470 11 is_stmt 1      @ /root/Bela/projects/assignment2_part1/render.cpp:470:11
	cmp	r3, #0
	.loc	2 468 14                @ /root/Bela/projects/assignment2_part1/render.cpp:468:14
	add	r6, r6, r3, lsl #2
	vldr	s0, [r6]
.Ltmp192:
	@DEBUG_VALUE: out <- %S0
	.loc	2 469 24                @ /root/Bela/projects/assignment2_part1/render.cpp:469:24
	sub	r6, r3, #1
	str	r6, [r5, r1, lsl #2]
	bgt	.LBB1_52
.Ltmp193:
@ BB#51:                                @   in Loop: Header=BB1_48 Depth=2
	@DEBUG_VALUE: out <- %S0
	.loc	2 472 28                @ /root/Bela/projects/assignment2_part1/render.cpp:472:28
	ldr	r2, [r4, r2, lsl #2]
	.loc	2 472 26 is_stmt 0      @ /root/Bela/projects/assignment2_part1/render.cpp:472:26
	str	r2, [r5, r1, lsl #2]
.Ltmp194:
	.loc	2 460 38 is_stmt 1      @ /root/Bela/projects/assignment2_part1/render.cpp:460:38
	mvn	r2, #0
.Ltmp195:
	.loc	2 473 38                @ /root/Bela/projects/assignment2_part1/render.cpp:473:38
	str	r2, [r8, r1, lsl #2]
.Ltmp196:
.LBB1_52:                               @   in Loop: Header=BB1_48 Depth=2
	.loc	2 449 28 discriminator 3 @ /root/Bela/projects/assignment2_part1/render.cpp:449:28
	add	r1, r1, #1
.Ltmp197:
	@DEBUG_VALUE: i <- %R1
	.loc	2 449 4 is_stmt 0 discriminator 1 @ /root/Bela/projects/assignment2_part1/render.cpp:449:4
	cmp	r1, #16
	bne	.LBB1_48
	b	.LBB1_58
.Ltmp198:
.LBB1_53:                               @ %.preheader164.split.us.preheader
                                        @   in Loop: Header=BB1_5 Depth=1
	mov	r0, #0
.LBB1_54:                               @ %.preheader164.split.us
                                        @   Parent Loop BB1_5 Depth=1
                                        @ =>  This Inner Loop Header: Depth=2
.Ltmp199:
	.loc	2 457 56 is_stmt 1      @ /root/Bela/projects/assignment2_part1/render.cpp:457:56
	ldr	r1, [r8, r0, lsl #2]
.Ltmp200:
	.loc	2 451 8                 @ /root/Bela/projects/assignment2_part1/render.cpp:451:8
	cmp	r1, #0
	blt	.LBB1_57
@ BB#55:                                @   in Loop: Header=BB1_54 Depth=2
.Ltmp201:
	.loc	2 455 63                @ /root/Bela/projects/assignment2_part1/render.cpp:455:63
	ldr	r2, [r5, r0, lsl #2]
	.loc	2 455 14 is_stmt 0      @ /root/Bela/projects/assignment2_part1/render.cpp:455:14
	ldr	r3, [r7, r1, lsl #2]
.Ltmp202:
	.loc	2 457 31 is_stmt 1      @ /root/Bela/projects/assignment2_part1/render.cpp:457:31
	ldr	r1, [r4, r1, lsl #2]
.Ltmp203:
	.loc	2 455 14                @ /root/Bela/projects/assignment2_part1/render.cpp:455:14
	add	r3, r3, r2, lsl #2
	.loc	2 456 24                @ /root/Bela/projects/assignment2_part1/render.cpp:456:24
	add	r2, r2, #1
	.loc	2 455 14                @ /root/Bela/projects/assignment2_part1/render.cpp:455:14
	vldr	s0, [r3]
.Ltmp204:
	@DEBUG_VALUE: out <- %S0
	.loc	2 457 11                @ /root/Bela/projects/assignment2_part1/render.cpp:457:11
	cmp	r2, r1
	.loc	2 456 24                @ /root/Bela/projects/assignment2_part1/render.cpp:456:24
	str	r2, [r5, r0, lsl #2]
	blt	.LBB1_57
.Ltmp205:
@ BB#56:                                @   in Loop: Header=BB1_54 Depth=2
	@DEBUG_VALUE: out <- %S0
	.loc	2 460 38                @ /root/Bela/projects/assignment2_part1/render.cpp:460:38
	mvn	r1, #0
	.loc	2 459 26                @ /root/Bela/projects/assignment2_part1/render.cpp:459:26
	str	r12, [r5, r0, lsl #2]
	.loc	2 460 38                @ /root/Bela/projects/assignment2_part1/render.cpp:460:38
	str	r1, [r8, r0, lsl #2]
.Ltmp206:
.LBB1_57:                               @ %thread-pre-split.us
                                        @   in Loop: Header=BB1_54 Depth=2
	.loc	2 449 28 discriminator 3 @ /root/Bela/projects/assignment2_part1/render.cpp:449:28
	add	r0, r0, #1
.Ltmp207:
	@DEBUG_VALUE: i <- %R0
	.loc	2 449 4 is_stmt 0 discriminator 1 @ /root/Bela/projects/assignment2_part1/render.cpp:449:4
	cmp	r0, #16
	bne	.LBB1_54
.Ltmp208:
.LBB1_58:                               @ %.preheader
                                        @   in Loop: Header=BB1_5 Depth=1
	.loc	2 482 52 is_stmt 1 discriminator 1 @ /root/Bela/projects/assignment2_part1/render.cpp:482:52
	ldr	r0, [lr, #28]
	ldr	r4, [sp, #4]            @ 4-byte Reload
	.loc	2 482 3 is_stmt 0 discriminator 1 @ /root/Bela/projects/assignment2_part1/render.cpp:482:3
	cmp	r0, #0
	beq	.LBB1_66
@ BB#59:                                @ %.lr.ph
                                        @   in Loop: Header=BB1_5 Depth=1
	ldr	r1, [lr, #4]
	mov	r2, #0
	cmp	r0, #3
	bls	.LBB1_64
@ BB#60:                                @ %min.iters.checked
                                        @   in Loop: Header=BB1_5 Depth=1
	mov	r6, r0
	bfc	r6, #0, #2
	cmp	r6, #0
	beq	.LBB1_64
@ BB#61:                                @ %vector.ph
                                        @   in Loop: Header=BB1_5 Depth=1
	mla	r2, r0, r4, r1
	vdup.32	q8, d0[0]
	.loc	2 482 77 discriminator 3 @ /root/Bela/projects/assignment2_part1/render.cpp:482:77
	mov	r3, r6
.LBB1_62:                               @ %vector.body
                                        @   Parent Loop BB1_5 Depth=1
                                        @ =>  This Inner Loop Header: Depth=2
.Ltmp209:
	.loc	22 1276 65 is_stmt 1    @ ./include/Bela.h:1276:65
	vst1.32	{d16, d17}, [r2]!
.Ltmp210:
	.loc	2 482 3 discriminator 1 @ /root/Bela/projects/assignment2_part1/render.cpp:482:3
	subs	r3, r3, #4
	bne	.LBB1_62
@ BB#63:                                @ %middle.block
                                        @   in Loop: Header=BB1_5 Depth=1
	mov	r2, r6
	cmp	r0, r6
	beq	.LBB1_66
.LBB1_64:                               @ %scalar.ph.preheader
                                        @   in Loop: Header=BB1_5 Depth=1
.Ltmp211:
	.loc	22 1276 54              @ ./include/Bela.h:1276:54
	mla	r3, r0, r10, r2
	add	r1, r1, r3, lsl #2
.Ltmp212:
.LBB1_65:                               @ %scalar.ph
                                        @   Parent Loop BB1_5 Depth=1
                                        @ =>  This Inner Loop Header: Depth=2
	.loc	2 482 77 discriminator 3 @ /root/Bela/projects/assignment2_part1/render.cpp:482:77
	add	r2, r2, #1
.Ltmp213:
	@DEBUG_VALUE: channel <- %R2
	.loc	22 1276 65              @ ./include/Bela.h:1276:65
	vstmia	r1!, {s0}
.Ltmp214:
	.loc	2 482 3 discriminator 1 @ /root/Bela/projects/assignment2_part1/render.cpp:482:3
	cmp	r2, r0
	blo	.LBB1_65
.Ltmp215:
.LBB1_66:                               @ %._crit_edge
                                        @   in Loop: Header=BB1_5 Depth=1
	.loc	2 167 2 discriminator 1 @ /root/Bela/projects/assignment2_part1/render.cpp:167:2
	add	r4, r4, #4
	.loc	2 167 53 is_stmt 0 discriminator 3 @ /root/Bela/projects/assignment2_part1/render.cpp:167:53
	add	r10, r10, #1
.Ltmp216:
	@DEBUG_VALUE: n <- %R10
	.loc	2 167 39 discriminator 1 @ /root/Bela/projects/assignment2_part1/render.cpp:167:39
	ldr	r0, [lr, #20]
	.loc	2 167 2 discriminator 1 @ /root/Bela/projects/assignment2_part1/render.cpp:167:2
	cmp	r10, r0
	blo	.LBB1_5
.Ltmp217:
.LBB1_67:                               @ %._crit_edge171
	.loc	2 492 1 is_stmt 1       @ /root/Bela/projects/assignment2_part1/render.cpp:492:1
	sub	sp, r11, #64
	vpop	{d8, d9, d10, d11}
	add	sp, sp, #4
	pop	{r4, r5, r6, r7, r8, r9, r10, r11, pc}
.Ltmp218:
@ BB#68:
.Lfunc_end1:
	.size	render, .Lfunc_end1-render
	.cfi_endproc
	.fnend

	.globl	_Z14startNextEventv
	.p2align	2
	.type	_Z14startNextEventv,%function
_Z14startNextEventv:                    @ @_Z14startNextEventv
.Lfunc_begin2:
	.loc	2 519 0                 @ /root/Bela/projects/assignment2_part1/render.cpp:519:0
	.fnstart
	.cfi_startproc
@ BB#0:
	.save	{r4, r5, r11, lr}
	push	{r4, r5, r11, lr}
.Ltmp219:
	.cfi_def_cfa_offset 16
.Ltmp220:
	.cfi_offset lr, -4
.Ltmp221:
	.cfi_offset r11, -8
.Ltmp222:
	.cfi_offset r5, -12
.Ltmp223:
	.cfi_offset r4, -16
	.setfp	r11, sp, #8
	add	r11, sp, #8
.Ltmp224:
	.cfi_def_cfa r11, 8
.Ltmp225:
	.loc	2 526 41 prologue_end   @ /root/Bela/projects/assignment2_part1/render.cpp:526:41
	movw	r4, :lower16:.L_MergedGlobals
	.loc	2 526 14 is_stmt 0      @ /root/Bela/projects/assignment2_part1/render.cpp:526:14
	movw	r2, :lower16:gPatterns
	.loc	2 526 41                @ /root/Bela/projects/assignment2_part1/render.cpp:526:41
	movt	r4, :upper16:.L_MergedGlobals
	.loc	2 526 14                @ /root/Bela/projects/assignment2_part1/render.cpp:526:14
	movt	r2, :upper16:gPatterns
	.loc	2 526 24                @ /root/Bela/projects/assignment2_part1/render.cpp:526:24
	ldrd	r0, r1, [r4, #8]
	.loc	2 526 14                @ /root/Bela/projects/assignment2_part1/render.cpp:526:14
	ldr	r0, [r2, r0, lsl #2]
	ldr	r5, [r0, r1, lsl #2]
.Ltmp226:
	@DEBUG_VALUE: eventContainsDrum:drum <- 0
	@DEBUG_VALUE: i <- 0
	@DEBUG_VALUE: startNextEvent:event <- %R5
	@DEBUG_VALUE: eventContainsDrum:event <- %R5
	.loc	2 529 10 is_stmt 1      @ /root/Bela/projects/assignment2_part1/render.cpp:529:10
	tst	r5, #1
.Ltmp227:
	.loc	2 530 7                 @ /root/Bela/projects/assignment2_part1/render.cpp:530:7
	movne	r0, #0
	blne	_Z16startPlayingDrumi
.Ltmp228:
	@DEBUG_VALUE: i <- 1
	@DEBUG_VALUE: eventContainsDrum:drum <- 0
	.loc	2 529 10                @ /root/Bela/projects/assignment2_part1/render.cpp:529:10
	tst	r5, #2
.Ltmp229:
	.loc	2 530 7                 @ /root/Bela/projects/assignment2_part1/render.cpp:530:7
	movne	r0, #1
	blne	_Z16startPlayingDrumi
.Ltmp230:
	@DEBUG_VALUE: i <- 1
	@DEBUG_VALUE: eventContainsDrum:drum <- 0
	.loc	2 529 10                @ /root/Bela/projects/assignment2_part1/render.cpp:529:10
	tst	r5, #4
.Ltmp231:
	.loc	2 530 7                 @ /root/Bela/projects/assignment2_part1/render.cpp:530:7
	movne	r0, #2
	blne	_Z16startPlayingDrumi
.Ltmp232:
	@DEBUG_VALUE: i <- 1
	@DEBUG_VALUE: eventContainsDrum:drum <- 0
	.loc	2 529 10                @ /root/Bela/projects/assignment2_part1/render.cpp:529:10
	tst	r5, #8
.Ltmp233:
	.loc	2 530 7                 @ /root/Bela/projects/assignment2_part1/render.cpp:530:7
	movne	r0, #3
	blne	_Z16startPlayingDrumi
.Ltmp234:
	@DEBUG_VALUE: i <- 1
	@DEBUG_VALUE: eventContainsDrum:drum <- 0
	.loc	2 529 10                @ /root/Bela/projects/assignment2_part1/render.cpp:529:10
	tst	r5, #16
.Ltmp235:
	.loc	2 530 7                 @ /root/Bela/projects/assignment2_part1/render.cpp:530:7
	movne	r0, #4
	blne	_Z16startPlayingDrumi
.Ltmp236:
	@DEBUG_VALUE: i <- 1
	@DEBUG_VALUE: eventContainsDrum:drum <- 0
	.loc	2 529 10                @ /root/Bela/projects/assignment2_part1/render.cpp:529:10
	tst	r5, #32
.Ltmp237:
	.loc	2 530 7                 @ /root/Bela/projects/assignment2_part1/render.cpp:530:7
	movne	r0, #5
	blne	_Z16startPlayingDrumi
.Ltmp238:
	@DEBUG_VALUE: i <- 1
	@DEBUG_VALUE: eventContainsDrum:drum <- 0
	.loc	2 529 10                @ /root/Bela/projects/assignment2_part1/render.cpp:529:10
	tst	r5, #64
.Ltmp239:
	.loc	2 530 7                 @ /root/Bela/projects/assignment2_part1/render.cpp:530:7
	movne	r0, #6
	blne	_Z16startPlayingDrumi
.Ltmp240:
	@DEBUG_VALUE: i <- 1
	@DEBUG_VALUE: eventContainsDrum:drum <- 0
	.loc	2 529 10                @ /root/Bela/projects/assignment2_part1/render.cpp:529:10
	tst	r5, #128
.Ltmp241:
	.loc	2 530 7                 @ /root/Bela/projects/assignment2_part1/render.cpp:530:7
	movne	r0, #7
	blne	_Z16startPlayingDrumi
.Ltmp242:
	@DEBUG_VALUE: i <- 1
	.loc	2 537 28                @ /root/Bela/projects/assignment2_part1/render.cpp:537:28
	ldr	r0, [r4, #12]
.Ltmp243:
	.loc	2 539 34                @ /root/Bela/projects/assignment2_part1/render.cpp:539:34
	movw	r2, :lower16:gPatternLengths
	movt	r2, :upper16:gPatternLengths
.Ltmp244:
	.loc	2 537 28                @ /root/Bela/projects/assignment2_part1/render.cpp:537:28
	add	r1, r0, #1
	str	r1, [r4, #12]
.Ltmp245:
	.loc	2 543 10                @ /root/Bela/projects/assignment2_part1/render.cpp:543:10
	ldr	r0, [r4, #8]
.Ltmp246:
	.loc	2 539 34                @ /root/Bela/projects/assignment2_part1/render.cpp:539:34
	ldr	r2, [r2, r0, lsl #2]
.Ltmp247:
	.loc	2 539 8 is_stmt 0       @ /root/Bela/projects/assignment2_part1/render.cpp:539:8
	cmp	r1, r2
	.loc	2 549 1 is_stmt 1       @ /root/Bela/projects/assignment2_part1/render.cpp:549:1
	poplt	{r4, r5, r11, pc}
.Ltmp248:
	mov	r1, #0
.Ltmp249:
	.loc	2 540 29                @ /root/Bela/projects/assignment2_part1/render.cpp:540:29
	str	r1, [r4, #12]
.Ltmp250:
	.loc	2 543 29                @ /root/Bela/projects/assignment2_part1/render.cpp:543:29
	ldr	r2, [r4, #36]
.Ltmp251:
	.loc	2 543 10 is_stmt 0      @ /root/Bela/projects/assignment2_part1/render.cpp:543:10
	cmp	r0, r2
.Ltmp252:
	.loc	2 544 31 is_stmt 1      @ /root/Bela/projects/assignment2_part1/render.cpp:544:31
	ldreq	r0, [r4, #32]
	.loc	2 544 29 is_stmt 0      @ /root/Bela/projects/assignment2_part1/render.cpp:544:29
	streq	r0, [r4, #8]
	.loc	2 545 29 is_stmt 1      @ /root/Bela/projects/assignment2_part1/render.cpp:545:29
	streq	r1, [r4, #28]
.Ltmp253:
	.loc	2 549 1                 @ /root/Bela/projects/assignment2_part1/render.cpp:549:1
	pop	{r4, r5, r11, pc}
.Ltmp254:
.Lfunc_end2:
	.size	_Z14startNextEventv, .Lfunc_end2-_Z14startNextEventv
	.cfi_endproc
	.fnend

	.globl	_Z16startPlayingDrumi
	.p2align	2
	.type	_Z16startPlayingDrumi,%function
_Z16startPlayingDrumi:                  @ @_Z16startPlayingDrumi
.Lfunc_begin3:
	.loc	2 496 0                 @ /root/Bela/projects/assignment2_part1/render.cpp:496:0
	.fnstart
	.cfi_startproc
@ BB#0:
	@DEBUG_VALUE: startPlayingDrum:drumIndex <- %R0
	@DEBUG_VALUE: i <- 0
	.loc	2 499 7 prologue_end    @ /root/Bela/projects/assignment2_part1/render.cpp:499:7
	movw	r2, :lower16:.L_MergedGlobals.6
	mov	r3, #0
	movt	r2, :upper16:.L_MergedGlobals.6
	ldr	r1, [r2]
.Ltmp255:
	.loc	2 499 7 is_stmt 0       @ /root/Bela/projects/assignment2_part1/render.cpp:499:7
	cmp	r1, #0
	blt	.LBB3_16
.Ltmp256:
@ BB#1:
	@DEBUG_VALUE: startPlayingDrum:drumIndex <- %R0
	@DEBUG_VALUE: i <- 1
	.loc	2 499 7                 @ /root/Bela/projects/assignment2_part1/render.cpp:499:7
	movw	r12, :lower16:.L_MergedGlobals.6
	mov	r3, #1
	movt	r12, :upper16:.L_MergedGlobals.6
	mov	r2, r12
	ldr	r1, [r2, #4]!
.Ltmp257:
	.loc	2 499 7                 @ /root/Bela/projects/assignment2_part1/render.cpp:499:7
	cmp	r1, #0
	blt	.LBB3_16
.Ltmp258:
@ BB#2:
	@DEBUG_VALUE: startPlayingDrum:drumIndex <- %R0
	@DEBUG_VALUE: i <- 1
	.loc	2 499 7                 @ /root/Bela/projects/assignment2_part1/render.cpp:499:7
	mov	r2, r12
	mov	r3, #2
	ldr	r1, [r2, #8]!
.Ltmp259:
	.loc	2 499 7                 @ /root/Bela/projects/assignment2_part1/render.cpp:499:7
	cmp	r1, #0
	blt	.LBB3_16
.Ltmp260:
@ BB#3:
	@DEBUG_VALUE: startPlayingDrum:drumIndex <- %R0
	@DEBUG_VALUE: i <- 1
	.loc	2 499 7                 @ /root/Bela/projects/assignment2_part1/render.cpp:499:7
	mov	r2, r12
	mov	r3, #3
	ldr	r1, [r2, #12]!
.Ltmp261:
	.loc	2 499 7                 @ /root/Bela/projects/assignment2_part1/render.cpp:499:7
	cmp	r1, #0
	blt	.LBB3_16
.Ltmp262:
@ BB#4:
	@DEBUG_VALUE: startPlayingDrum:drumIndex <- %R0
	@DEBUG_VALUE: i <- 1
	.loc	2 499 7                 @ /root/Bela/projects/assignment2_part1/render.cpp:499:7
	mov	r2, r12
	mov	r3, #4
	ldr	r1, [r2, #16]!
.Ltmp263:
	.loc	2 499 7                 @ /root/Bela/projects/assignment2_part1/render.cpp:499:7
	cmp	r1, #0
	blt	.LBB3_16
.Ltmp264:
@ BB#5:
	@DEBUG_VALUE: startPlayingDrum:drumIndex <- %R0
	@DEBUG_VALUE: i <- 1
	.loc	2 499 7                 @ /root/Bela/projects/assignment2_part1/render.cpp:499:7
	mov	r2, r12
	mov	r3, #5
	ldr	r1, [r2, #20]!
.Ltmp265:
	.loc	2 499 7                 @ /root/Bela/projects/assignment2_part1/render.cpp:499:7
	cmp	r1, #0
	blt	.LBB3_16
.Ltmp266:
@ BB#6:
	@DEBUG_VALUE: startPlayingDrum:drumIndex <- %R0
	@DEBUG_VALUE: i <- 1
	.loc	2 499 7                 @ /root/Bela/projects/assignment2_part1/render.cpp:499:7
	mov	r2, r12
	mov	r3, #6
	ldr	r1, [r2, #24]!
.Ltmp267:
	.loc	2 499 7                 @ /root/Bela/projects/assignment2_part1/render.cpp:499:7
	cmp	r1, #0
	blt	.LBB3_16
.Ltmp268:
@ BB#7:
	@DEBUG_VALUE: startPlayingDrum:drumIndex <- %R0
	@DEBUG_VALUE: i <- 1
	.loc	2 499 7                 @ /root/Bela/projects/assignment2_part1/render.cpp:499:7
	mov	r2, r12
	mov	r3, #7
	ldr	r1, [r2, #28]!
.Ltmp269:
	.loc	2 499 7                 @ /root/Bela/projects/assignment2_part1/render.cpp:499:7
	cmp	r1, #0
	blt	.LBB3_16
.Ltmp270:
@ BB#8:
	@DEBUG_VALUE: startPlayingDrum:drumIndex <- %R0
	@DEBUG_VALUE: i <- 1
	.loc	2 499 7                 @ /root/Bela/projects/assignment2_part1/render.cpp:499:7
	mov	r2, r12
	mov	r3, #8
	ldr	r1, [r2, #32]!
.Ltmp271:
	.loc	2 499 7                 @ /root/Bela/projects/assignment2_part1/render.cpp:499:7
	cmp	r1, #0
	blt	.LBB3_16
.Ltmp272:
@ BB#9:
	@DEBUG_VALUE: startPlayingDrum:drumIndex <- %R0
	@DEBUG_VALUE: i <- 1
	.loc	2 499 7                 @ /root/Bela/projects/assignment2_part1/render.cpp:499:7
	mov	r2, r12
	mov	r3, #9
	ldr	r1, [r2, #36]!
.Ltmp273:
	.loc	2 499 7                 @ /root/Bela/projects/assignment2_part1/render.cpp:499:7
	cmp	r1, #0
	blt	.LBB3_16
.Ltmp274:
@ BB#10:
	@DEBUG_VALUE: startPlayingDrum:drumIndex <- %R0
	@DEBUG_VALUE: i <- 1
	.loc	2 499 7                 @ /root/Bela/projects/assignment2_part1/render.cpp:499:7
	mov	r2, r12
	mov	r3, #10
	ldr	r1, [r2, #40]!
.Ltmp275:
	.loc	2 499 7                 @ /root/Bela/projects/assignment2_part1/render.cpp:499:7
	cmp	r1, #0
	blt	.LBB3_16
.Ltmp276:
@ BB#11:
	@DEBUG_VALUE: startPlayingDrum:drumIndex <- %R0
	@DEBUG_VALUE: i <- 1
	.loc	2 499 7                 @ /root/Bela/projects/assignment2_part1/render.cpp:499:7
	mov	r2, r12
	mov	r3, #11
	ldr	r1, [r2, #44]!
.Ltmp277:
	.loc	2 499 7                 @ /root/Bela/projects/assignment2_part1/render.cpp:499:7
	cmp	r1, #0
	blt	.LBB3_16
.Ltmp278:
@ BB#12:
	@DEBUG_VALUE: startPlayingDrum:drumIndex <- %R0
	@DEBUG_VALUE: i <- 1
	.loc	2 499 7                 @ /root/Bela/projects/assignment2_part1/render.cpp:499:7
	mov	r2, r12
	mov	r3, #12
	ldr	r1, [r2, #48]!
.Ltmp279:
	.loc	2 499 7                 @ /root/Bela/projects/assignment2_part1/render.cpp:499:7
	cmp	r1, #0
	blt	.LBB3_16
.Ltmp280:
@ BB#13:
	@DEBUG_VALUE: startPlayingDrum:drumIndex <- %R0
	@DEBUG_VALUE: i <- 1
	.loc	2 499 7                 @ /root/Bela/projects/assignment2_part1/render.cpp:499:7
	mov	r2, r12
	mov	r3, #13
	ldr	r1, [r2, #52]!
.Ltmp281:
	.loc	2 499 7                 @ /root/Bela/projects/assignment2_part1/render.cpp:499:7
	cmp	r1, #0
	blt	.LBB3_16
.Ltmp282:
@ BB#14:
	@DEBUG_VALUE: startPlayingDrum:drumIndex <- %R0
	@DEBUG_VALUE: i <- 1
	.loc	2 499 7                 @ /root/Bela/projects/assignment2_part1/render.cpp:499:7
	mov	r2, r12
	mov	r3, #14
	ldr	r1, [r2, #56]!
.Ltmp283:
	.loc	2 499 7                 @ /root/Bela/projects/assignment2_part1/render.cpp:499:7
	cmp	r1, #0
	blt	.LBB3_16
.Ltmp284:
@ BB#15:
	@DEBUG_VALUE: startPlayingDrum:drumIndex <- %R0
	@DEBUG_VALUE: i <- 1
	.loc	2 499 7                 @ /root/Bela/projects/assignment2_part1/render.cpp:499:7
	ldr	r1, [r12, #60]!
	mov	r3, #15
	mov	r2, r12
.Ltmp285:
	.loc	2 499 7                 @ /root/Bela/projects/assignment2_part1/render.cpp:499:7
	cmp	r1, #0
	bge	.LBB3_19
.Ltmp286:
.LBB3_16:
	@DEBUG_VALUE: startPlayingDrum:drumIndex <- %R0
	.loc	2 500 33 is_stmt 1      @ /root/Bela/projects/assignment2_part1/render.cpp:500:33
	str	r0, [r2]
.Ltmp287:
	.loc	2 508 7                 @ /root/Bela/projects/assignment2_part1/render.cpp:508:7
	movw	r0, :lower16:.L_MergedGlobals
.Ltmp288:
	movt	r0, :upper16:.L_MergedGlobals
	ldr	r0, [r0, #24]
.Ltmp289:
	.loc	2 505 7                 @ /root/Bela/projects/assignment2_part1/render.cpp:505:7
	cmp	r0, #0
	beq	.LBB3_18
.Ltmp290:
@ BB#17:
	cmp	r0, #1
	.loc	2 516 1                 @ /root/Bela/projects/assignment2_part1/render.cpp:516:1
	bxne	lr
.Ltmp291:
	.loc	2 506 24                @ /root/Bela/projects/assignment2_part1/render.cpp:506:24
	movw	r0, :lower16:gDrumSampleBufferLengths
	.loc	2 506 5 is_stmt 0       @ /root/Bela/projects/assignment2_part1/render.cpp:506:5
	movw	r1, :lower16:.L_MergedGlobals.5
	.loc	2 506 24                @ /root/Bela/projects/assignment2_part1/render.cpp:506:24
	movt	r0, :upper16:gDrumSampleBufferLengths
	.loc	2 506 5                 @ /root/Bela/projects/assignment2_part1/render.cpp:506:5
	movt	r1, :upper16:.L_MergedGlobals.5
	.loc	2 506 24                @ /root/Bela/projects/assignment2_part1/render.cpp:506:24
	ldr	r0, [r0, r3, lsl #2]
	.loc	2 506 52                @ /root/Bela/projects/assignment2_part1/render.cpp:506:52
	sub	r0, r0, #1
	.loc	2 506 22                @ /root/Bela/projects/assignment2_part1/render.cpp:506:22
	str	r0, [r1, r3, lsl #2]
.Ltmp292:
	.loc	2 516 1 is_stmt 1       @ /root/Bela/projects/assignment2_part1/render.cpp:516:1
	bx	lr
.LBB3_18:
.Ltmp293:
	.loc	2 509 4                 @ /root/Bela/projects/assignment2_part1/render.cpp:509:4
	movw	r0, :lower16:.L_MergedGlobals.5
	.loc	2 509 21 is_stmt 0      @ /root/Bela/projects/assignment2_part1/render.cpp:509:21
	mov	r1, #0
	.loc	2 509 4                 @ /root/Bela/projects/assignment2_part1/render.cpp:509:4
	movt	r0, :upper16:.L_MergedGlobals.5
	.loc	2 509 21                @ /root/Bela/projects/assignment2_part1/render.cpp:509:21
	str	r1, [r0, r3, lsl #2]
.Ltmp294:
.LBB3_19:                               @ %.loopexit
	.loc	2 516 1 is_stmt 1       @ /root/Bela/projects/assignment2_part1/render.cpp:516:1
	bx	lr
.Ltmp295:
.Lfunc_end3:
	.size	_Z16startPlayingDrumi, .Lfunc_end3-_Z16startPlayingDrumi
	.cfi_endproc
	.fnend

	.globl	_Z17eventContainsDrumii
	.p2align	2
	.type	_Z17eventContainsDrumii,%function
_Z17eventContainsDrumii:                @ @_Z17eventContainsDrumii
.Lfunc_begin4:
	.loc	2 552 0                 @ /root/Bela/projects/assignment2_part1/render.cpp:552:0
	.fnstart
	.cfi_startproc
@ BB#0:
	@DEBUG_VALUE: eventContainsDrum:event <- %R0
	@DEBUG_VALUE: eventContainsDrum:drum <- %R1
	mov	r2, #1
.Ltmp296:
	.loc	2 553 11 prologue_end   @ /root/Bela/projects/assignment2_part1/render.cpp:553:11
	and	r0, r0, r2, lsl r1
.Ltmp297:
	.loc	2 555 2                 @ /root/Bela/projects/assignment2_part1/render.cpp:555:2
	cmp	r0, #0
	movwne	r0, #1
	.loc	2 556 1                 @ /root/Bela/projects/assignment2_part1/render.cpp:556:1
	bx	lr
.Ltmp298:
.Lfunc_end4:
	.size	_Z17eventContainsDrumii, .Lfunc_end4-_Z17eventContainsDrumii
	.cfi_endproc
	.fnend

	.globl	cleanup
	.p2align	2
	.type	cleanup,%function
cleanup:                                @ @cleanup
.Lfunc_begin5:
	.loc	2 562 0                 @ /root/Bela/projects/assignment2_part1/render.cpp:562:0
	.fnstart
	.cfi_startproc
@ BB#0:
	@DEBUG_VALUE: cleanup:context <- %R0
	@DEBUG_VALUE: cleanup:userData <- %R1
	.loc	2 564 1 prologue_end    @ /root/Bela/projects/assignment2_part1/render.cpp:564:1
	bx	lr
.Ltmp299:
.Lfunc_end5:
	.size	cleanup, .Lfunc_end5-cleanup
	.cfi_endproc
	.fnend

	.section	.text.startup,"ax",%progbits
	.p2align	2
	.type	_GLOBAL__sub_I_render.ii,%function
_GLOBAL__sub_I_render.ii:               @ @_GLOBAL__sub_I_render.ii
.Lfunc_begin6:
	.file	45 "/root/Bela/projects/assignment2_part1/build" "render.cpp"
	.loc	45 0 0                  @ /root/Bela/projects/assignment2_part1/build/render.cpp:0:0
	.fnstart
	.cfi_startproc
@ BB#0:
	.save	{r4, r5, r6, r10, r11, lr}
	push	{r4, r5, r6, r10, r11, lr}
.Ltmp300:
	.cfi_def_cfa_offset 24
.Ltmp301:
	.cfi_offset lr, -4
.Ltmp302:
	.cfi_offset r11, -8
.Ltmp303:
	.cfi_offset r10, -12
.Ltmp304:
	.cfi_offset r6, -16
.Ltmp305:
	.cfi_offset r5, -20
.Ltmp306:
	.cfi_offset r4, -24
	.setfp	r11, sp, #16
	add	r11, sp, #16
.Ltmp307:
	.cfi_def_cfa r11, 8
.Ltmp308:
	.loc	2 20 8 prologue_end     @ /root/Bela/projects/assignment2_part1/render.cpp:20:8
	movw	r4, :lower16:.L_MergedGlobals.7
	movt	r4, :upper16:.L_MergedGlobals.7
	mov	r0, r4
	bl	_ZN6BiquadC1Ev
	.loc	2 20 8 is_stmt 0 discriminator 1 @ /root/Bela/projects/assignment2_part1/render.cpp:20:8
	movw	r5, :lower16:_ZN6BiquadD1Ev
	movw	r6, :lower16:__dso_handle
	movt	r5, :upper16:_ZN6BiquadD1Ev
	movt	r6, :upper16:__dso_handle
	mov	r0, r5
	mov	r1, r4
	mov	r2, r6
	bl	__cxa_atexit
.Ltmp309:
	.loc	2 21 8 is_stmt 1        @ /root/Bela/projects/assignment2_part1/render.cpp:21:8
	movw	r4, :lower16:.L_MergedGlobals.8
	movt	r4, :upper16:.L_MergedGlobals.8
	mov	r0, r4
	bl	_ZN6BiquadC1Ev
	.loc	2 21 8 is_stmt 0 discriminator 1 @ /root/Bela/projects/assignment2_part1/render.cpp:21:8
	mov	r0, r5
	mov	r1, r4
	mov	r2, r6
	bl	__cxa_atexit
.Ltmp310:
	.loc	2 112 7 is_stmt 1       @ /root/Bela/projects/assignment2_part1/render.cpp:112:7
	movw	r4, :lower16:gScope
	movt	r4, :upper16:gScope
	mov	r0, r4
	bl	_ZN5ScopeC1Ev
	.loc	2 112 7 is_stmt 0 discriminator 1 @ /root/Bela/projects/assignment2_part1/render.cpp:112:7
	movw	r0, :lower16:_ZN5ScopeD1Ev
	mov	r1, r4
	movt	r0, :upper16:_ZN5ScopeD1Ev
	mov	r2, r6
	pop	{r4, r5, r6, r10, r11, lr}
	b	__cxa_atexit
.Ltmp311:
.Lfunc_end6:
	.size	_GLOBAL__sub_I_render.ii, .Lfunc_end6-_GLOBAL__sub_I_render.ii
	.cfi_endproc
	.fnend

	.type	gReadPointer,%object    @ @gReadPointer
	.bss
	.globl	gReadPointer
	.p2align	2
gReadPointer:
	.long	0                       @ 0x0
	.size	gReadPointer, 4

	.type	x_afterhighpass,%object @ @x_afterhighpass
	.globl	x_afterhighpass
	.p2align	2
x_afterhighpass:
	.long	0                       @ float 0
	.size	x_afterhighpass, 4

	.type	gScope,%object          @ @gScope
	.globl	gScope
	.p2align	2
gScope:
	.zero	212
	.size	gScope, 212

	.type	.L.str,%object          @ @.str
	.section	.rodata.str1.1,"aMS",%progbits,1
.L.str:
	.asciz	"This example needs audio and digital running at the same rate.\n"
	.size	.L.str, 64

	.type	_ZZ6renderE12printCounter,%object @ @_ZZ6renderE12printCounter
	.local	_ZZ6renderE12printCounter
	.comm	_ZZ6renderE12printCounter,4,4
	.type	.L.str.3,%object        @ @.str.3
.L.str.3:
	.asciz	"orientation_name  gShouldPlayFill,%d %d \n"
	.size	.L.str.3, 42

	.section	.init_array,"aw",%init_array
	.p2align	2
	.long	_GLOBAL__sub_I_render.ii(target1)
	.type	.L_MergedGlobals,%object @ @_MergedGlobals
	.data
	.p2align	4
.L_MergedGlobals:
	.byte	0                       @ 0x0
	.zero	3
	.long	0                       @ 0x0
	.long	0                       @ 0x0
	.long	0                       @ 0x0
	.long	250                     @ 0xfa
	.long	0                       @ 0x0
	.long	0                       @ 0x0
	.long	0                       @ 0x0
	.long	0                       @ 0x0
	.long	2                       @ 0x2
	.long	0                       @ 0x0
	.long	0                       @ 0x0
	.long	2                       @ 0x2
	.long	3                       @ 0x3
	.long	4                       @ 0x4
	.long	1054448026              @ float 0.425000012
	.long	1032805417              @ float 0.0700000003
	.long	3180289065              @ float -0.0700000003
	.long	1048576000              @ float 0.25
	.long	0                       @ 0x0
	.long	1145569280              @ float 800
	.long	1153138688              @ float 1500
	.long	1060437492              @ float 0.707000017
	.size	.L_MergedGlobals, 92

	.type	.L_MergedGlobals.5,%object @ @_MergedGlobals.5
	.local	.L_MergedGlobals.5
	.comm	.L_MergedGlobals.5,64,16
	.type	.L_MergedGlobals.6,%object @ @_MergedGlobals.6
	.p2align	4
.L_MergedGlobals.6:
	.long	4294967295              @ 0xffffffff
	.long	0                       @ 0x0
	.long	0                       @ 0x0
	.long	0                       @ 0x0
	.long	0                       @ 0x0
	.long	0                       @ 0x0
	.long	0                       @ 0x0
	.long	0                       @ 0x0
	.long	0                       @ 0x0
	.long	0                       @ 0x0
	.long	0                       @ 0x0
	.long	0                       @ 0x0
	.long	0                       @ 0x0
	.long	0                       @ 0x0
	.long	0                       @ 0x0
	.long	0                       @ 0x0
	.size	.L_MergedGlobals.6, 64

	.type	.L_MergedGlobals.7,%object @ @_MergedGlobals.7
	.local	.L_MergedGlobals.7
	.comm	.L_MergedGlobals.7,120,16
	.type	.L_MergedGlobals.8,%object @ @_MergedGlobals.8
	.local	.L_MergedGlobals.8
	.comm	.L_MergedGlobals.8,120,16